CCS PCH C Compiler, Version 5.011, 5967               30-בס-25 01:13

               Filename:   F:\Common\Programming\GitHub\DIPAE_EnsomatomenaSystimata_6th_Term\Askisi4\TestTimer\TestTimer.lst

               ROM used:   254 bytes (1%)
                           Largest free fragment is 32510
               RAM used:   23 (1%) at main() level
                           23 (1%) worst case
               Stack used: 2 locations (1 in main + 1 for interrupts)
               Stack size: 31

*
0000:  GOTO   00E8
*
0008:  MOVWF  04
000A:  MOVFF  FD8,05
000E:  MOVFF  FE0,06
0012:  MOVLB  0
0014:  MOVFF  FE9,0C
0018:  MOVFF  FEA,07
001C:  MOVFF  FE1,08
0020:  MOVFF  FE2,09
0024:  MOVFF  FD9,0A
0028:  MOVFF  FDA,0B
002C:  MOVFF  FF3,12
0030:  MOVFF  FF4,13
0034:  MOVFF  FFA,14
0038:  MOVFF  00,0E
003C:  MOVFF  01,0F
0040:  MOVFF  02,10
0044:  MOVFF  03,11
0048:  BTFSS  FF2.5
004A:  GOTO   0054
004E:  BTFSC  FF2.2
0050:  GOTO   00C2
0054:  BTFSS  FF2.4
0056:  GOTO   0060
005A:  BTFSC  FF2.1
005C:  GOTO   00A2
0060:  MOVFF  0E,00
0064:  MOVFF  0F,01
0068:  MOVFF  10,02
006C:  MOVFF  11,03
0070:  MOVFF  0C,FE9
0074:  MOVFF  07,FEA
0078:  BSF    07.7
007A:  MOVFF  08,FE1
007E:  MOVFF  09,FE2
0082:  MOVFF  0A,FD9
0086:  MOVFF  0B,FDA
008A:  MOVFF  12,FF3
008E:  MOVFF  13,FF4
0092:  MOVFF  14,FFA
0096:  MOVF   04,W
0098:  MOVFF  06,FE0
009C:  MOVFF  05,FD8
00A0:  RETFIE 0
.................... // DIPAE - Enosmatomena Systimata - 6o Eksamino 
.................... // Alevropoulos Panagiotis 
.................... // AM: 2022005 
.................... // Askisi 4 - Test timer 
.................... #include <main_.h> 
.................... #include <18F4550.h> 
.................... //////// Standard Header file for the PIC18F4550 device //////////////// 
.................... #device PIC18F4550 
....................  
.................... #list 
....................  
.................... #device adc=10 
....................  
.................... #FUSES NOWDT                     //No Watch Dog Timer 
.................... #FUSES WDT32768                    //Watch Dog Timer uses 1:128 Postscale 
.................... #FUSES HSPLL                     //High Speed Crystal/Resonator with PLL enabled 
.................... #FUSES NOPROTECT                 //Code not protected from reading 
.................... #FUSES BROWNOUT                //No brownout reset 
.................... //#FUSES BORV20                    //Brownout reset at 2.0V 
.................... #FUSES NOPUT                     //No Power Up Timer 
.................... #FUSES NOCPD                     //No EE protection 
.................... #FUSES STVREN                    //Stack full/underflow will cause reset 
.................... #FUSES NODEBUG                   //No Debug mode for ICD 
.................... #FUSES NOLVP                     //No low voltage prgming, B3(PIC16) or B5(PIC18) used for I/O 
.................... #FUSES NOWRT                     //Program memory not write protected 
.................... #FUSES NOWRTD                    //Data EEPROM not write protected 
.................... #FUSES NOIESO                      //Internal External Switch Over mode enabled 
.................... #FUSES NOFCMEN                     //Fail-safe clock monitor enabled 
.................... #FUSES NOPBADEN                 ///PORTB pins are configured as analog input channels on RESET 
.................... #FUSES NOWRTC                    //configuration not registers write protected 
.................... #FUSES NOWRTB                    //Boot block not write protected 
.................... #FUSES NOEBTR                    //Memory not protected from table reads 
.................... #FUSES NOEBTRB                   //Boot block not protected from table reads 
.................... #FUSES NOCPB                     //No Boot Block code protection 
.................... #FUSES MCLR                      //Master Clear pin enabled 
.................... #FUSES NOLPT1OSC                   //Timer1 configured for low-power operation 
.................... #FUSES NOXINST                   //Extended set extension and Indexed Addressing mode disabled (Legacy mode) 
.................... #FUSES PLL5                      //Divide By 12(48MHz oscillator input) 
.................... #FUSES CPUDIV1                   //System Clock by 2 
.................... #FUSES USBDIV                    //USB clock source comes from PLL divide by 2 
.................... #FUSES VREGEN                    //USB voltage regulator enabled 
.................... //#FUSES ICPRT                     //ICPRT enabled 
.................... #FUSES WRTB 
.................... #FUSES NOICPRT  
.................... #FUSES NOLPT1OSC 
.................... #FUSES CCP2B3  
.................... #FUSES NOCPB 
.................... #FUSES NOCPD 
.................... #FUSES NOWRTC 
.................... #FUSES NOWRTD 
.................... #FUSES NOEBTR 
.................... #FUSES NOEBTRB               
....................  
.................... /* systm clock is 48 MHz */ 
.................... #use delay(clock=48000000,RESTART_WDT) 
.................... /* --- BEGIN: changes required for bootloader ------------------------------ */ 
....................  
.................... /* ------------------------------------------------------------------------- */ 
.................... /* map reset vector and interrupt vector                                     */ 
.................... /* 0x000-0x7FF is used by the bootloader. The bootloader maps the original   */ 
.................... /* reset vecotr (0x000) to 0x800 and the reset vector (0x008) to 0x800.      */ 
.................... /* ------------------------------------------------------------------------- */ 
.................... //#build (reset=0x800, interrupt=0x808) 
....................  
.................... /* ------------------------------------------------------------------------- */ 
.................... /* reserve boot block area                                                   */ 
.................... /* This memory range is used by the bootloader, so the application must not  */ 
.................... /* use this area.                                                            */ 
.................... /* ------------------------------------------------------------------------- */ 
.................... //#org 0, 0x7FF {} 
....................  
.................... /* --- END: changes required for bootloader -------------------------------- */ 
....................  
....................  
....................  
....................  
....................  
....................  
.................... #use standard_io (A) // Standard Eisodoi & Eksodoi 
.................... #use standard_io (B) // Standard Eisodoi & Eksodoi 
.................... #use standard_io (C) // Standard Eisodoi & Eksodoi 
....................  
.................... #byte PORTA =0xF80 // Orismos ton thiron me ti thesi tous sti mnimi 
.................... #byte PORTB =0xF81 // Orismos ton thiron me ti thesi tous sti mnimi 
.................... #byte PORTC =0xF82 // Orismos ton thiron me ti thesi tous sti mnimi 
.................... #byte PORTD =0xF83 // Orismos ton thiron me ti thesi tous sti mnimi 
.................... #byte PORTE =0xF84 // Orismos ton thiron me ti thesi tous sti mnimi 
....................  
.................... #define Toggle_Led0 PORTD^=0x1; // Antrisotrfi tou bit RD0 
.................... #define Toggle_Led1 PORTD^=0x2; // Antrisotrfi tou bit RD1 
.................... #define Toggle_Led2 PORTD^=0x4; // Antrisotrfi tou bit RD2 
.................... #define Toggle_Led3 PORTD^=0x8; // Antrisotrfi tou bit RD3 
.................... #define Toggle_Led4 PORTD^=0x10; // Antrisotrfi tou bit RD4 
.................... #define Toggle_Led5 PORTD^=0x20; // Antrisotrfi tou bit RD5 
.................... #define Toggle_Led6 PORTD^=0x40; // Antrisotrfi tou bit RD6 
.................... #define Toggle_Led7 PORTD^=0x80; // Antrisotrfi tou bit RD7 
....................  
....................  
.................... int1 previous_L_TO_H = 1; // Metavliti gia na mporoume na allazoume to metopo energopoiisis tis diakopis mesa sti routina eksipiretisis 
....................  
.................... // Dilosi sinartiseon eksipiretisis 
.................... void timer0_int(void); 
.................... void ext_int(void); 
.................... void init(void); 
....................  
.................... void main() 
*
00E8:  CLRF   FF8
00EA:  BCF    FD0.7
00EC:  BSF    07.7
00EE:  BSF    16.0
00F0:  MOVF   FC1,W
00F2:  ANDLW  C0
00F4:  IORLW  0F
00F6:  MOVWF  FC1
00F8:  MOVLW  07
00FA:  MOVWF  FB4
.................... { 
....................    init(); 
00FC:  BRA    00CC
....................    while (TRUE) { 
00FE:  BRA    00FE
....................    } 
.................... }    
....................  
.................... #INT_EXT 
.................... void ext_int(void) { 
0100:  SLEEP 
.................... //   int8 timer_value = 0; 
....................    // Me ton parakato tropo mporoume na allazoume to metopo energopoiisis tis diakopis mesa sti routina eksipiretisis 
....................    PORTD = 0; 
*
00A2:  CLRF   F83
....................    if (previous_L_TO_H) { // An i proigoumeni katastasi tou metopou L se H itan TRUE... 
00A4:  BTFSS  16.0
00A6:  BRA    00B0
....................       ext_int_edge(0, H_TO_L); // ...allazei to metopo tis diakopis apo H se L... 
00A8:  BCF    FF1.6
....................       SETUP_TIMER_0(T0_INTERNAL | T0_DIV_8); 
00AA:  MOVLW  82
00AC:  MOVWF  FD5
....................    } 
00AE:  BRA    00B6
....................    else { 
....................       ext_int_edge(0, L_TO_H); // ...allios allazei to metopo tis diakopis apo L se H 
00B0:  BSF    FF1.6
....................       SETUP_TIMER_0(T0_INTERNAL | T0_DIV_2); 
00B2:  MOVLW  80
00B4:  MOVWF  FD5
....................    } 
....................    Toggle_Led7; 
00B6:  MOVLW  80
00B8:  XORWF  F83,F
....................    previous_L_TO_H = !previous_L_TO_H; 
00BA:  BTG    16.0
.................... } 
....................  
00BC:  BCF    FF2.1
00BE:  GOTO   0060
.................... #INT_TIMER0 
.................... void timer0_int(void) { 
....................    //PORTD = PORTD ^ get_timer0(); 
....................    Toggle_Led5; 
00C2:  MOVLW  20
00C4:  XORWF  F83,F
00C6:  BCF    FF2.2
00C8:  GOTO   0060
.................... } 
....................  
.................... void init(void) { 
....................    set_tris_b(0xff); // Orismos tou PORTB san eisodo (1) 
00CC:  MOVLW  FF
00CE:  MOVWF  F93
....................    set_tris_d(0x00); // Orismos tou PORTD san eksodo (0) 
00D0:  MOVLW  00
00D2:  MOVWF  F95
....................     
....................    SETUP_TIMER_0(T0_INTERNAL | T0_DIV_2); 
00D4:  MOVLW  80
00D6:  MOVWF  FD5
....................    enable_interrupts(INT_TIMER0); 
00D8:  BSF    FF2.5
....................    port_b_pullups(TRUE); 
00DA:  BCF    FF1.7
....................    ext_int_edge(0, L_TO_H); // Gia na mporoume na allazoume to metopo kata tin ektelesi tiw routinas eksiporetisis prepei to interrupt afto na ksekinaei apo L_TO_H  
00DC:  BSF    FF1.6
....................    enable_interrupts(INT_EXT); // Energopoiisi eksoterikis diakopis RB0 
00DE:  BSF    FF2.4
....................    enable_interrupts(GLOBAL); // Energopoiisi genikou diakopti diakopon 
00E0:  MOVLW  C0
00E2:  IORWF  FF2,F
00E4:  GOTO   00FE (RETURN)
.................... } 

Configuration Fuses:
   Word  1: 0E24   PLL5 CPUDIV1 USBDIV HSPLL NOFCMEN NOIESO
   Word  2: 1E3F   NOPUT BROWNOUT BORV21 VREGEN NOWDT WDT32768
   Word  3: 8000   CCP2B3 NOPBADEN NOLPT1OSC MCLR
   Word  4: 0081   STVREN NOLVP ICSP1 NOXINST NODEBUG
   Word  5: C00F   NOPROTECT NOCPB NOCPD
   Word  6: A00F   NOWRT NOWRTC WRTB NOWRTD
   Word  7: 400F   NOEBTR NOEBTRB
