CCS PCH C Compiler, Version 5.011, 5967               29-בס-25 22:39

               Filename:   F:\Common\Programming\GitHub\DIPAE_EnsomatomenaSystimata_6th_Term\MPLAB_tests01\test01.lst

               ROM used:   268 bytes (1%)
                           Largest free fragment is 31664
               RAM used:   23 (1%) at main() level
                           23 (1%) worst case
               Stack used: 2 locations (1 in main + 1 for interrupts)
               Stack size: 30

*
0000:  GOTO   00F6
*
0008:  MOVWF  04
000A:  MOVFF  FD8,05
000E:  MOVFF  FE0,06
0012:  MOVLB  0
0014:  MOVFF  FE9,0C
0018:  MOVFF  FEA,07
001C:  MOVFF  FE1,08
0020:  MOVFF  FE2,09
0024:  MOVFF  FD9,0A
0028:  MOVFF  FDA,0B
002C:  MOVFF  FF3,12
0030:  MOVFF  FF4,13
0034:  MOVFF  FFA,14
0038:  MOVFF  00,0E
003C:  MOVFF  01,0F
0040:  MOVFF  02,10
0044:  MOVFF  03,11
0048:  BTFSS  FF2.4
004A:  GOTO   0054
004E:  BTFSC  FF2.1
0050:  GOTO   00AE
0054:  BTFSS  FF0.3
0056:  GOTO   0060
005A:  BTFSC  FF0.0
005C:  GOTO   00C4
0060:  BTFSS  FF0.4
0062:  GOTO   006C
0066:  BTFSC  FF0.1
0068:  GOTO   00CE
006C:  MOVFF  0E,00
0070:  MOVFF  0F,01
0074:  MOVFF  10,02
0078:  MOVFF  11,03
007C:  MOVFF  0C,FE9
0080:  MOVFF  07,FEA
0084:  BSF    07.7
0086:  MOVFF  08,FE1
008A:  MOVFF  09,FE2
008E:  MOVFF  0A,FD9
0092:  MOVFF  0B,FDA
0096:  MOVFF  12,FF3
009A:  MOVFF  13,FF4
009E:  MOVFF  14,FFA
00A2:  MOVF   04,W
00A4:  MOVFF  06,FE0
00A8:  MOVFF  05,FD8
00AC:  RETFIE 0
.................... // DIPAE - Enosmatomena Systimata - 6o Eksamino 
.................... // Alevropoulos Panagiotis 
.................... // AM: 2022005 
.................... // Askisi MPLAB_test 
.................... #include <main_.h> 
.................... #include <18F4550.h> 
.................... //////// Standard Header file for the PIC18F4550 device //////////////// 
.................... #device PIC18F4550 
....................  
.................... #list 
....................  
.................... #device adc=10 
....................  
.................... #FUSES NOWDT                     //No Watch Dog Timer 
.................... #FUSES WDT32768                    //Watch Dog Timer uses 1:128 Postscale 
.................... #FUSES HSPLL                     //High Speed Crystal/Resonator with PLL enabled 
.................... #FUSES NOPROTECT                 //Code not protected from reading 
.................... #FUSES BROWNOUT                //No brownout reset 
.................... //#FUSES BORV20                    //Brownout reset at 2.0V 
.................... #FUSES NOPUT                     //No Power Up Timer 
.................... #FUSES NOCPD                     //No EE protection 
.................... #FUSES STVREN                    //Stack full/underflow will cause reset 
.................... #FUSES NODEBUG                   //No Debug mode for ICD 
.................... #FUSES NOLVP                     //No low voltage prgming, B3(PIC16) or B5(PIC18) used for I/O 
.................... #FUSES NOWRT                     //Program memory not write protected 
.................... #FUSES NOWRTD                    //Data EEPROM not write protected 
.................... #FUSES NOIESO                      //Internal External Switch Over mode enabled 
.................... #FUSES NOFCMEN                     //Fail-safe clock monitor enabled 
.................... #FUSES NOPBADEN                 ///PORTB pins are configured as analog input channels on RESET 
.................... #FUSES NOWRTC                    //configuration not registers write protected 
.................... #FUSES NOWRTB                    //Boot block not write protected 
.................... #FUSES NOEBTR                    //Memory not protected from table reads 
.................... #FUSES NOEBTRB                   //Boot block not protected from table reads 
.................... #FUSES NOCPB                     //No Boot Block code protection 
.................... #FUSES MCLR                      //Master Clear pin enabled 
.................... #FUSES NOLPT1OSC                   //Timer1 configured for low-power operation 
.................... #FUSES NOXINST                   //Extended set extension and Indexed Addressing mode disabled (Legacy mode) 
.................... #FUSES PLL5                      //Divide By 12(48MHz oscillator input) 
.................... #FUSES CPUDIV1                   //System Clock by 2 
.................... #FUSES USBDIV                    //USB clock source comes from PLL divide by 2 
.................... #FUSES VREGEN                    //USB voltage regulator enabled 
.................... //#FUSES ICPRT                     //ICPRT enabled 
.................... #FUSES WRTB 
.................... #FUSES NOICPRT  
.................... #FUSES NOLPT1OSC 
.................... #FUSES CCP2B3  
.................... #FUSES NOCPB 
.................... #FUSES NOCPD 
.................... #FUSES NOWRTC 
.................... #FUSES NOWRTD 
.................... #FUSES NOEBTR 
.................... #FUSES NOEBTRB               
....................  
.................... /* systm clock is 48 MHz */ 
.................... #use delay(clock=48000000,RESTART_WDT) 
.................... /* --- BEGIN: changes required for bootloader ------------------------------ */ 
....................  
.................... /* ------------------------------------------------------------------------- */ 
.................... /* map reset vector and interrupt vector                                     */ 
.................... /* 0x000-0x7FF is used by the bootloader. The bootloader maps the original   */ 
.................... /* reset vecotr (0x000) to 0x800 and the reset vector (0x008) to 0x800.      */ 
.................... /* ------------------------------------------------------------------------- */ 
.................... //#build (reset=0x800, interrupt=0x808) 
....................  
.................... /* ------------------------------------------------------------------------- */ 
.................... /* reserve boot block area                                                   */ 
.................... /* This memory range is used by the bootloader, so the application must not  */ 
.................... /* use this area.                                                            */ 
.................... /* ------------------------------------------------------------------------- */ 
.................... //#org 0, 0x7FF {} 
....................  
.................... /* --- END: changes required for bootloader -------------------------------- */ 
....................  
....................  
....................  
....................  
....................  
....................  
.................... #use standard_io (A) // Standard Eisodoi & Eksodoi 
.................... #use standard_io (B) // Standard Eisodoi & Eksodoi 
.................... #use standard_io (C) // Standard Eisodoi & Eksodoi 
.................... #byte PORTA =0xF80 // Orismos ton thiron me ti thesi tous sti mnimi 
.................... #byte PORTB =0xF81 // Orismos ton thiron me ti thesi tous sti mnimi 
.................... #byte PORTC =0xF82 // Orismos ton thiron me ti thesi tous sti mnimi 
.................... #byte PORTD =0xF83 // Orismos ton thiron me ti thesi tous sti mnimi 
.................... #byte PORTE =0xF84 // Orismos ton thiron me ti thesi tous sti mnimi 
....................  
.................... int1 previous_L_TO_H = 1; // Metavliti gia na mporoume na allazoume to metopo energopoiisis tis diakopis mesa sti routina eksipiretisis 
....................  
.................... // Dilosi sinartiseon Interrupts 
.................... void ext_int(void); 
.................... void ext_int1(void); 
.................... void ext_int2(void); 
.................... void init(); 
....................  
.................... void main() 
*
00F6:  CLRF   FF8
00F8:  BCF    FD0.7
00FA:  BSF    07.7
00FC:  BSF    16.0
00FE:  MOVF   FC1,W
0100:  ANDLW  C0
0102:  IORLW  0F
0104:  MOVWF  FC1
0106:  MOVLW  07
0108:  MOVWF  FB4
.................... { 
.................... 	init(); 
010A:  BRA    00D8
....................    	while (TRUE) { 
010C:  BRA    010C
.................... 		 
....................    	} 
.................... }    
....................  
.................... // Ylopoioisi sinartiseon Interrupts 
.................... #INT_EXT 
.................... void ext_int() { 
010E:  BRA    010E
.................... 	PORTD = PORTD ^ 0xFF; 
*
00AE:  MOVLW  FF
00B0:  XORWF  F83,F
.................... 	// Me ton parakato tropo mporoume na allazoume to metopo energopoiisis tis diakopis mesa sti routina eksipiretisis 
.................... 	if (previous_L_TO_H) // An i proigoumeni katastasi tou metopou L se H itan TRUE... 
00B2:  BTFSS  16.0
00B4:  BRA    00BA
.................... 		ext_int_edge(0, H_TO_L); // ...allazei to metopo tis diakopis apo H se L... 
00B6:  BCF    FF1.6
00B8:  BRA    00BC
.................... 	else 
.................... 		ext_int_edge(0, L_TO_H); // ...allios allazei to metopo tis diakopis apo L se H 
00BA:  BSF    FF1.6
.................... 	previous_L_TO_H = !previous_L_TO_H; 
00BC:  BTG    16.0
.................... } 
00BE:  BCF    FF2.1
00C0:  GOTO   006C
.................... #INT_EXT1 
.................... void ext_int1() { 
.................... 	PORTD = PORTD ^ 0xFF; 
00C4:  MOVLW  FF
00C6:  XORWF  F83,F
.................... } 
00C8:  BCF    FF0.0
00CA:  GOTO   006C
.................... #INT_EXT2 
.................... void ext_int2() { 
.................... 	PORTD = PORTD ^ 0xFF; 
00CE:  MOVLW  FF
00D0:  XORWF  F83,F
00D2:  BCF    FF0.1
00D4:  GOTO   006C
.................... } 
....................  
.................... void init() { 
....................    	set_tris_b(0xff); // Orismos tou PORTB san eisodo (1) 
00D8:  MOVLW  FF
00DA:  MOVWF  F93
.................... 	set_tris_d(0x00); // Orismos tou PORTD san eksodo (0) 
00DC:  MOVLW  00
00DE:  MOVWF  F95
.................... 	port_b_pullups(TRUE); 
00E0:  BCF    FF1.7
.................... 	ext_int_edge(0, L_TO_H); 
00E2:  BSF    FF1.6
.................... 	ext_int_edge(1, L_TO_H); 
00E4:  BSF    FF1.5
.................... 	ext_int_edge(2, H_TO_L); 
00E6:  BCF    FF1.4
.................... 	enable_interrupts(INT_EXT); 
00E8:  BSF    FF2.4
.................... 	enable_interrupts(INT_EXT1); 
00EA:  BSF    FF0.3
.................... 	enable_interrupts(INT_EXT2); 
00EC:  BSF    FF0.4
.................... 	enable_interrupts(GLOBAL); 
00EE:  MOVLW  C0
00F0:  IORWF  FF2,F
00F2:  GOTO   010C (RETURN)
.................... } 

Configuration Fuses:
   Word  1: 0E24   PLL5 CPUDIV1 USBDIV HSPLL NOFCMEN NOIESO
   Word  2: 1E39   NOPUT NOBROWNOUT BORV21 VREGEN NOWDT WDT32768
   Word  3: 8000   CCP2B3 NOPBADEN NOLPT1OSC MCLR
   Word  4: 0000   NOSTVREN NOLVP ICSP1 NOXINST DEBUG
   Word  5: C00F   NOPROTECT NOCPB NOCPD
   Word  6: E00F   NOWRT NOWRTC NOWRTB NOWRTD
   Word  7: 400F   NOEBTR NOEBTRB

   Some fuses have been forced to be compatible with the ICD debugger.
