CCS PCH C Compiler, Version 5.011, 5967               15-בת-25 23:17

               Filename:   F:\Common\Programming\GitHub\DIPAE_EnsomatomenaSystimata_6th_Term\Askisi8\Askisi8.1\ask8_1_solved.lst

               ROM used:   796 bytes (2%)
                           Largest free fragment is 31972
               RAM used:   19 (1%) at main() level
                           24 (1%) worst case
               Stack used: 2 locations
               Stack size: 31

*
0000:  GOTO   01C0
.................... // DIPAE - Enosmatomena Systimata - 6o Eksamino 
.................... // Alevropoulos Panagiotis 
.................... // AM: 2022005 
.................... // Askisi: 8.1 
....................  
.................... #include <main_.h> 
.................... #include <18F4550.h> 
.................... //////// Standard Header file for the PIC18F4550 device //////////////// 
.................... #device PIC18F4550 
0004:  CLRF   FF7
0006:  ADDLW  14
0008:  MOVWF  FF6
000A:  MOVLW  00
000C:  ADDWFC FF7,F
000E:  TBLRD*+
0010:  MOVF   FF5,W
0012:  RETURN 0
0014:  DATA 37,38
0016:  DATA 39,43
0018:  DATA 34,35
001A:  DATA 36,42
001C:  DATA 31,32
001E:  DATA 33,41
0020:  DATA 2A,30
0022:  DATA 3D,44
*
0154:  ADDWF  FE8,W
0156:  CLRF   FF7
0158:  RLCF   FF7,F
015A:  ADDLW  6F
015C:  MOVWF  FF6
015E:  MOVLW  01
0160:  ADDWFC FF7,F
0162:  TBLRD*-
0164:  MOVF   FF5,W
0166:  MOVWF  FFA
0168:  TBLRD*
016A:  MOVF   FF5,W
016C:  MOVWF  FF9
016E:  DATA 8C,00
0170:  DATA 9E,00
0172:  DATA B0,00
0174:  DATA C2,00
*
01A2:  MOVF   13,W
01A4:  MULWF  15
01A6:  MOVFF  FF3,01
01AA:  MOVFF  FF4,00
01AE:  MULWF  16
01B0:  MOVF   FF3,W
01B2:  ADDWF  00,F
01B4:  MOVF   14,W
01B6:  MULWF  15
01B8:  MOVF   FF3,W
01BA:  ADDWFC 00,W
01BC:  MOVWF  02
01BE:  RETURN 0
....................  
.................... #list 
....................  
.................... #device adc=10 
....................  
.................... #FUSES NOWDT                     //No Watch Dog Timer 
.................... #FUSES WDT32768                    //Watch Dog Timer uses 1:128 Postscale 
.................... #FUSES HSPLL                     //High Speed Crystal/Resonator with PLL enabled 
.................... #FUSES NOPROTECT                 //Code not protected from reading 
.................... #FUSES BROWNOUT                //No brownout reset 
.................... //#FUSES BORV20                    //Brownout reset at 2.0V 
.................... #FUSES NOPUT                     //No Power Up Timer 
.................... #FUSES NOCPD                     //No EE protection 
.................... #FUSES STVREN                    //Stack full/underflow will cause reset 
.................... #FUSES NODEBUG                   //No Debug mode for ICD 
.................... #FUSES NOLVP                     //No low voltage prgming, B3(PIC16) or B5(PIC18) used for I/O 
.................... #FUSES NOWRT                     //Program memory not write protected 
.................... #FUSES NOWRTD                    //Data EEPROM not write protected 
.................... #FUSES NOIESO                      //Internal External Switch Over mode enabled 
.................... #FUSES NOFCMEN                     //Fail-safe clock monitor enabled 
.................... #FUSES NOPBADEN                 ///PORTB pins are configured as analog input channels on RESET 
.................... #FUSES NOWRTC                    //configuration not registers write protected 
.................... #FUSES NOWRTB                    //Boot block not write protected 
.................... #FUSES NOEBTR                    //Memory not protected from table reads 
.................... #FUSES NOEBTRB                   //Boot block not protected from table reads 
.................... #FUSES NOCPB                     //No Boot Block code protection 
.................... #FUSES MCLR                      //Master Clear pin enabled 
.................... #FUSES NOLPT1OSC                   //Timer1 configured for low-power operation 
.................... #FUSES NOXINST                   //Extended set extension and Indexed Addressing mode disabled (Legacy mode) 
.................... #FUSES PLL5                      //Divide By 12(48MHz oscillator input) 
.................... #FUSES CPUDIV1                   //System Clock by 2 
.................... #FUSES USBDIV                    //USB clock source comes from PLL divide by 2 
.................... #FUSES VREGEN                    //USB voltage regulator enabled 
.................... //#FUSES ICPRT                     //ICPRT enabled 
.................... #FUSES WRTB 
.................... #FUSES NOICPRT  
.................... #FUSES NOLPT1OSC 
.................... #FUSES CCP2B3  
.................... #FUSES NOCPB 
.................... #FUSES NOCPD 
.................... #FUSES NOWRTC 
.................... #FUSES NOWRTD 
.................... #FUSES NOEBTR 
.................... #FUSES NOEBTRB               
....................  
.................... /* systm clock is 48 MHz */ 
.................... #use delay(clock=48000000,RESTART_WDT) 
*
0176:  CLRF   FEA
0178:  MOVLW  10
017A:  MOVWF  FE9
017C:  MOVF   FEF,W
017E:  BZ    01A0
0180:  MOVLW  0F
0182:  MOVWF  01
0184:  MOVLW  BF
0186:  MOVWF  00
0188:  CLRWDT
018A:  DECFSZ 00,F
018C:  BRA    0188
018E:  DECFSZ 01,F
0190:  BRA    0184
0192:  MOVLW  8F
0194:  MOVWF  00
0196:  DECFSZ 00,F
0198:  BRA    0196
019A:  CLRWDT
019C:  DECFSZ FEF,F
019E:  BRA    0180
01A0:  RETURN 0
.................... /* --- BEGIN: changes required for bootloader ------------------------------ */ 
....................  
.................... /* ------------------------------------------------------------------------- */ 
.................... /* map reset vector and interrupt vector                                     */ 
.................... /* 0x000-0x7FF is used by the bootloader. The bootloader maps the original   */ 
.................... /* reset vecotr (0x000) to 0x800 and the reset vector (0x008) to 0x800.      */ 
.................... /* ------------------------------------------------------------------------- */ 
.................... //#build (reset=0x800, interrupt=0x808) 
....................  
.................... /* ------------------------------------------------------------------------- */ 
.................... /* reserve boot block area                                                   */ 
.................... /* This memory range is used by the bootloader, so the application must not  */ 
.................... /* use this area.                                                            */ 
.................... /* ------------------------------------------------------------------------- */ 
.................... //#org 0, 0x7FF {} 
....................  
.................... /* --- END: changes required for bootloader -------------------------------- */ 
....................  
....................  
....................  
....................  
....................  
.................... #include <keypad_sim.h> 
.................... //Keypad connection: 
.................... #define row0 PIN_B4 
.................... #define row1 PIN_B5 
.................... #define row2 PIN_B6 
.................... #define row3 PIN_B7 
.................... #define col0 PIN_B0 
.................... #define col1 PIN_B1 
.................... #define col2 PIN_B2 
.................... #define col3 PIN_B3 
....................  
.................... //------------------- Variable definition---------------------------- 
.................... char const KEYS[4][4] = 
.................... {{'7','8','9','C'}, 
....................  {'4','5','6','B'}, 
....................  {'1','2','3','A'}, 
....................  {'*','0','=','D'}}; 
....................  
....................  
.................... #define KBD_DEBOUNCE_FACTOR 200// Set this number to apx n/333 where 
.................... // n is the number of times you expect 
.................... // to call kbd_getc each second 
....................  
.................... //------------------Function Definition------------------------------ 
.................... short int ALL_ROWS (void); 
.................... void kbd_init(void); 
.................... char kbd_getc(void); 
.................... //------------------------------------------------------------------- 
.................... void kbd_init(void) 
.................... { 
.................... set_tris_b(0xF0); 
*
002E:  MOVLW  F0
0030:  MOVWF  F93
.................... output_b(0x0F); 
0032:  CLRF   F93
0034:  MOVLW  0F
0036:  MOVWF  F8A
0038:  GOTO   01E6 (RETURN)
.................... } 
.................... //----------------------------------------------------------- 
.................... short int ALL_ROWS (void) 
.................... { 
.................... if(input (row0) & input (row1) & input (row2) & input (row3)) 
003C:  BSF    F93.4
003E:  MOVLW  00
0040:  BTFSC  F81.4
0042:  MOVLW  01
0044:  MOVWF  11
0046:  BSF    F93.5
0048:  MOVLW  00
004A:  BTFSC  F81.5
004C:  MOVLW  01
004E:  ANDWF  11,F
0050:  BSF    F93.6
0052:  MOVLW  00
0054:  BTFSC  F81.6
0056:  MOVLW  01
0058:  ANDWF  11,F
005A:  BSF    F93.7
005C:  MOVLW  00
005E:  BTFSC  F81.7
0060:  MOVLW  01
0062:  ANDWF  11,W
0064:  BZ    006E
.................... return (0); 
0066:  MOVLW  00
0068:  MOVWF  01
006A:  BRA    0072
006C:  BRA    0072
.................... else 
.................... return (1); 
006E:  MOVLW  01
0070:  MOVWF  01
0072:  RETURN 0
.................... } 
....................  
.................... //----------------------------------------------------------- 
....................  
.................... char kbd_getc(void) 
.................... { 
.................... static byte kbd_call_count; 
.................... static short int kbd_down; 
.................... static char last_key; 
.................... static byte col; 
....................  
.................... byte kchar; 
.................... byte row; 
....................  
.................... kchar='\0'; 
0074:  CLRF   0F
....................  
.................... if(++kbd_call_count>KBD_DEBOUNCE_FACTOR) 
0076:  INCF   04,F
0078:  MOVF   04,W
007A:  SUBLW  C8
007C:  BTFSC  FD8.0
007E:  BRA    014E
....................   { 
....................       switch (col) 
0080:  MOVF   07,W
0082:  ADDLW  FC
0084:  BC    00D2
0086:  ADDLW  04
0088:  GOTO   0154
....................               { 
....................                case 0: 
....................               output_low(col0); 
008C:  BCF    F93.0
008E:  BCF    F8A.0
.................... 	//delay_us(1); 
....................               output_high(col1); 
0090:  BCF    F93.1
0092:  BSF    F8A.1
.................... 	//delay_us(1); 
....................               output_high(col2); 
0094:  BCF    F93.2
0096:  BSF    F8A.2
.................... 	//delay_us(1); 
....................               output_high(col3); 
0098:  BCF    F93.3
009A:  BSF    F8A.3
.................... 	//delay_us(1); 
....................               break; 
009C:  BRA    00D2
....................     
....................               case 1: 
....................               output_high(col0); 
009E:  BCF    F93.0
00A0:  BSF    F8A.0
.................... 	//delay_us(1); 
....................               output_low(col1); 
00A2:  BCF    F93.1
00A4:  BCF    F8A.1
.................... 	//delay_us(1); 
....................               output_high(col2); 
00A6:  BCF    F93.2
00A8:  BSF    F8A.2
.................... 	//delay_us(1); 
....................               output_high(col3); 
00AA:  BCF    F93.3
00AC:  BSF    F8A.3
.................... 	//delay_us(1); 
....................               break; 
00AE:  BRA    00D2
....................  
....................                case 2: 
....................               output_high(col0); 
00B0:  BCF    F93.0
00B2:  BSF    F8A.0
.................... 	//delay_us(1); 
....................               output_high(col1); 
00B4:  BCF    F93.1
00B6:  BSF    F8A.1
.................... 	//delay_us(1); 
....................               output_low(col2); 
00B8:  BCF    F93.2
00BA:  BCF    F8A.2
.................... 	//delay_us(1); 
....................               output_high(col3); 
00BC:  BCF    F93.3
00BE:  BSF    F8A.3
.................... 	//delay_us(1); 
....................               break; 
00C0:  BRA    00D2
....................  
....................                case 3: 
....................               output_high(col0); 
00C2:  BCF    F93.0
00C4:  BSF    F8A.0
.................... 	//delay_us(1); 
....................               output_high(col1); 
00C6:  BCF    F93.1
00C8:  BSF    F8A.1
.................... 	//delay_us(1); 
....................               output_high(col2); 
00CA:  BCF    F93.2
00CC:  BSF    F8A.2
.................... 	//delay_us(1); 
....................               output_low(col3); 
00CE:  BCF    F93.3
00D0:  BCF    F8A.3
.................... 	//delay_us(1); 
....................               break; 
....................                } 
....................  
....................             if(kbd_down) 
00D2:  BTFSS  05.0
00D4:  BRA    00E6
....................                  { 
....................                   if(!ALL_ROWS()) 
00D6:  RCALL  003C
00D8:  MOVF   01,F
00DA:  BNZ   00E4
....................                        { 
....................                        kbd_down=false; 
00DC:  BCF    05.0
....................                        kchar=last_key; 
00DE:  MOVFF  06,0F
....................                        last_key='\0'; 
00E2:  CLRF   06
....................                           } 
....................                  } 
00E4:  BRA    014C
....................          else 
....................               { 
....................                if(ALL_ROWS()) 
00E6:  RCALL  003C
00E8:  MOVF   01,F
00EA:  BZ    0142
....................                  { 
....................                   if(!input (row0)) 
00EC:  BSF    F93.4
00EE:  BTFSC  F81.4
00F0:  BRA    00F6
....................                        row=0; 
00F2:  CLRF   10
00F4:  BRA    0118
....................                   else if(!input (row1)) 
00F6:  BSF    F93.5
00F8:  BTFSC  F81.5
00FA:  BRA    0102
....................                        row=1; 
00FC:  MOVLW  01
00FE:  MOVWF  10
0100:  BRA    0118
....................                   else if(!input (row2)) 
0102:  BSF    F93.6
0104:  BTFSC  F81.6
0106:  BRA    010E
....................                        row=2; 
0108:  MOVLW  02
010A:  MOVWF  10
010C:  BRA    0118
....................                   else if(!input (row3)) 
010E:  BSF    F93.7
0110:  BTFSC  F81.7
0112:  BRA    0118
....................                        row=3; 
0114:  MOVLW  03
0116:  MOVWF  10
....................  
....................                   last_key =KEYS[row][col]; 
0118:  MOVF   10,W
011A:  MULLW  04
011C:  MOVF   FF3,W
011E:  CLRF   12
0120:  MOVWF  11
0122:  CLRF   03
0124:  MOVF   07,W
0126:  ADDWF  11,W
0128:  MOVWF  01
012A:  MOVF   12,W
012C:  ADDWFC 03,F
012E:  MOVF   01,W
0130:  MOVFF  FF2,11
0134:  BCF    FF2.7
0136:  RCALL  0004
0138:  BTFSC  11.7
013A:  BSF    FF2.7
013C:  MOVWF  06
....................                   kbd_down = true; 
013E:  BSF    05.0
....................                  } 
0140:  BRA    014C
....................             else 
....................                     { 
....................                ++col; 
0142:  INCF   07,F
....................                //delay_ms(3); 
....................                if(col==4) 
0144:  MOVF   07,W
0146:  SUBLW  04
0148:  BNZ   014C
....................                      col=0; 
014A:  CLRF   07
....................                     } 
....................              } 
....................             kbd_call_count=0; 
014C:  CLRF   04
....................      } 
....................          return(kchar); 
014E:  MOVFF  0F,01
0152:  RETURN 0
.................... } 
....................  
.................... //------------------------------------------------------------- 
....................  
.................... #byte PORTB=0xf81 
.................... #byte PORTD=0xf83 
.................... //--------------------------------------------------- 
.................... //------------------- Variable definition------------------------------ 
.................... char state = 1; 
.................... char N1,N2,N3; 
.................... int16 time=0; 
.................... //------------------Function Definition-------------------------------- 
.................... void init (void); 
.................... //--------------------------------------------------------------------- 
.................... void main() { 
*
01C0:  CLRF   FF8
01C2:  BCF    FD0.7
01C4:  MOVLW  01
01C6:  MOVWF  08
01C8:  CLRF   0D
01CA:  CLRF   0C
01CC:  MOVF   FC1,W
01CE:  ANDLW  C0
01D0:  IORLW  0F
01D2:  MOVWF  FC1
01D4:  MOVLW  07
01D6:  MOVWF  FB4
01D8:  BCF    05.0
01DA:  CLRF   04
01DC:  BCF    05.0
01DE:  CLRF   06
01E0:  CLRF   07
....................    char k; 
....................    init(); 
01E2:  BRA    0024
....................    kbd_init(); 
01E4:  BRA    002E
....................    while(TRUE) { 
....................       //  output_bit(PIN_D2,!(input(PIN_D1))); 
....................       output_bit(PIN_D2,(input(PIN_D1))); 
01E6:  BSF    F95.1
01E8:  BTFSC  F83.1
01EA:  BRA    01F0
01EC:  BCF    F8C.2
01EE:  BRA    01F2
01F0:  BSF    F8C.2
01F2:  BCF    F95.2
....................       switch(state) { 
01F4:  MOVF   08,W
01F6:  XORLW  01
01F8:  BZ    0204
01FA:  XORLW  03
01FC:  BZ    022C
01FE:  XORLW  01
0200:  BZ    0254
0202:  BRA    027A
....................          case 1: 
....................             k = kbd_getc(); 
0204:  RCALL  0074
0206:  MOVFF  01,0E
....................             while (k!=0) { 
020A:  MOVF   0E,F
020C:  BZ    022A
....................                N1 = k & 0b00001111; // Giati ginetai afto to bitwise???? 
020E:  MOVF   0E,W
0210:  ANDLW  0F
0212:  MOVWF  09
....................                state = 2; 
0214:  MOVLW  02
0216:  MOVWF  08
....................                output_high(PIN_D3); 
0218:  BCF    F95.3
021A:  BSF    F8C.3
....................                delay_ms(50); 
021C:  MOVLW  32
021E:  MOVWF  10
0220:  RCALL  0176
....................                output_low(PIN_D3);           
0222:  BCF    F95.3
0224:  BCF    F8C.3
....................                break; 
0226:  BRA    022A
0228:  BRA    020A
....................             } 
....................          break; 
022A:  BRA    027A
....................          case 2: 
....................             k = kbd_getc(); 
022C:  RCALL  0074
022E:  MOVFF  01,0E
....................             while (k!=0) { 
0232:  MOVF   0E,F
0234:  BZ    0252
....................                N2 = k & 0b00001111; // Giati ginetai afto to bitwise???? 
0236:  MOVF   0E,W
0238:  ANDLW  0F
023A:  MOVWF  0A
....................                state = 3; 
023C:  MOVLW  03
023E:  MOVWF  08
....................                output_high(PIN_D3); 
0240:  BCF    F95.3
0242:  BSF    F8C.3
....................                delay_ms(100); 
0244:  MOVLW  64
0246:  MOVWF  10
0248:  RCALL  0176
....................                output_low(PIN_D3); 
024A:  BCF    F95.3
024C:  BCF    F8C.3
....................                break; 
024E:  BRA    0252
0250:  BRA    0232
....................             } 
....................          break; 
0252:  BRA    027A
....................          case 3: 
....................             k = kbd_getc(); 
0254:  RCALL  0074
0256:  MOVFF  01,0E
....................             while (k!=0) { 
025A:  MOVF   0E,F
025C:  BZ    027A
....................                N3 = k & 0b00001111; // Giati ginetai afto to bitwise???? 
025E:  MOVF   0E,W
0260:  ANDLW  0F
0262:  MOVWF  0B
....................                state = 1; 
0264:  MOVLW  01
0266:  MOVWF  08
....................                output_high(PIN_D3); 
0268:  BCF    F95.3
026A:  BSF    F8C.3
....................                delay_ms(50); 
026C:  MOVLW  32
026E:  MOVWF  10
0270:  RCALL  0176
....................                output_low(PIN_D3); 
0272:  BCF    F95.3
0274:  BCF    F8C.3
....................                //N1=0; 
....................                //N2=0; 
....................                //N3=0; 
....................                //time = 0; 
....................                break; 
0276:  BRA    027A
0278:  BRA    025A
....................              } 
....................       }   
....................       time = (((int16)N1 * 100 + (int16)N2 * 10 + (int16)N3) * 100); 
027A:  CLRF   10
027C:  MOVFF  09,0F
0280:  MOVFF  10,14
0284:  MOVFF  09,13
0288:  CLRF   16
028A:  MOVLW  64
028C:  MOVWF  15
028E:  RCALL  01A2
0290:  MOVFF  02,10
0294:  MOVFF  01,0F
0298:  CLRF   12
029A:  MOVFF  0A,11
029E:  MOVFF  12,14
02A2:  MOVFF  0A,13
02A6:  CLRF   16
02A8:  MOVLW  0A
02AA:  MOVWF  15
02AC:  RCALL  01A2
02AE:  MOVFF  02,03
02B2:  MOVF   01,W
02B4:  ADDWF  0F,F
02B6:  MOVF   02,W
02B8:  ADDWFC 10,F
02BA:  CLRF   03
02BC:  MOVF   0B,W
02BE:  ADDWF  0F,F
02C0:  MOVF   03,W
02C2:  ADDWFC 10,F
02C4:  MOVFF  10,14
02C8:  MOVFF  0F,13
02CC:  CLRF   16
02CE:  MOVLW  64
02D0:  MOVWF  15
02D2:  RCALL  01A2
02D4:  MOVFF  02,0D
02D8:  MOVFF  01,0C
....................       if (time > 65500) { 
02DC:  MOVF   0D,W
02DE:  SUBLW  FE
02E0:  BC    02F2
02E2:  XORLW  FF
02E4:  BNZ   02EC
02E6:  MOVF   0C,W
02E8:  SUBLW  DC
02EA:  BC    02F2
....................          time = 65500; 
02EC:  SETF   0D
02EE:  MOVLW  DC
02F0:  MOVWF  0C
....................       } 
....................       delay_ms(time);  
02F2:  MOVFF  0D,0F
02F6:  INCF   0F,F
02F8:  DECF   0F,F
02FA:  BTFSC  FD8.2
02FC:  BRA    0304
02FE:  SETF   10
0300:  RCALL  0176
0302:  BRA    02F8
0304:  MOVFF  0C,10
0308:  RCALL  0176
....................       output_bit(PIN_D2,(input(PIN_D1))); 
030A:  BSF    F95.1
030C:  BTFSC  F83.1
030E:  BRA    0314
0310:  BCF    F8C.2
0312:  BRA    0316
0314:  BSF    F8C.2
0316:  BCF    F95.2
0318:  BRA    01E6
....................    } 
.................... } 
.................... //----------------------------------------------------------- 
031A:  SLEEP 
.................... //------------------Function declaration------------- 
.................... //----------------------------------------------------------- 
.................... void init (void) { 
....................    set_tris_d(0x03); 
*
0024:  MOVLW  03
0026:  MOVWF  F95
....................    PORTD = 0; 
0028:  CLRF   F83
002A:  GOTO   01E4 (RETURN)
.................... } 
.................... //----------------------------------------------------------- 

Configuration Fuses:
   Word  1: 0E24   PLL5 CPUDIV1 USBDIV HSPLL NOFCMEN NOIESO
   Word  2: 1E3F   NOPUT BROWNOUT BORV21 VREGEN NOWDT WDT32768
   Word  3: 8000   CCP2B3 NOPBADEN NOLPT1OSC MCLR
   Word  4: 0081   STVREN NOLVP ICSP1 NOXINST NODEBUG
   Word  5: C00F   NOPROTECT NOCPB NOCPD
   Word  6: A00F   NOWRT NOWRTC WRTB NOWRTD
   Word  7: 400F   NOEBTR NOEBTRB
