CCS PCH C Compiler, Version 5.011, 5967               23-בס-25 00:27

               Filename:   F:\Common\Programming\GitHub\DIPAE_EnsomatomenaSystimata_6th_Term\Askisi3\Askisi3.3\askisi3_3.lst

               ROM used:   302 bytes (1%)
                           Largest free fragment is 32462
               RAM used:   24 (1%) at main() level
                           25 (1%) worst case
               Stack used: 2 locations (1 in main + 1 for interrupts)
               Stack size: 31

*
0000:  GOTO   0106
*
0008:  MOVWF  04
000A:  MOVFF  FD8,05
000E:  MOVFF  FE0,06
0012:  MOVLB  0
0014:  MOVFF  FE9,0C
0018:  MOVFF  FEA,07
001C:  MOVFF  FE1,08
0020:  MOVFF  FE2,09
0024:  MOVFF  FD9,0A
0028:  MOVFF  FDA,0B
002C:  MOVFF  FF3,12
0030:  MOVFF  FF4,13
0034:  MOVFF  FFA,14
0038:  MOVFF  00,0E
003C:  MOVFF  01,0F
0040:  MOVFF  02,10
0044:  MOVFF  03,11
0048:  BTFSS  FF2.4
004A:  GOTO   0054
004E:  BTFSC  FF2.1
0050:  GOTO   00A2
0054:  BTFSS  FF0.4
0056:  GOTO   0060
005A:  BTFSC  FF0.1
005C:  GOTO   00AE
0060:  MOVFF  0E,00
0064:  MOVFF  0F,01
0068:  MOVFF  10,02
006C:  MOVFF  11,03
0070:  MOVFF  0C,FE9
0074:  MOVFF  07,FEA
0078:  BSF    07.7
007A:  MOVFF  08,FE1
007E:  MOVFF  09,FE2
0082:  MOVFF  0A,FD9
0086:  MOVFF  0B,FDA
008A:  MOVFF  12,FF3
008E:  MOVFF  13,FF4
0092:  MOVFF  14,FFA
0096:  MOVF   04,W
0098:  MOVFF  06,FE0
009C:  MOVFF  05,FD8
00A0:  RETFIE 0
.................... // DIPAE - Enosmatomena Systimata - 6o Eksamino 
.................... // Alevropoulos Panagiotis 
.................... // AM: 2022005 
.................... // Askisi 3.3 
.................... #include <main_.h> 
.................... #include <18F4550.h> 
.................... //////// Standard Header file for the PIC18F4550 device //////////////// 
.................... #device PIC18F4550 
....................  
.................... #list 
....................  
.................... #device adc=10 
....................  
.................... #FUSES NOWDT                     //No Watch Dog Timer 
.................... #FUSES WDT32768                    //Watch Dog Timer uses 1:128 Postscale 
.................... #FUSES HSPLL                     //High Speed Crystal/Resonator with PLL enabled 
.................... #FUSES NOPROTECT                 //Code not protected from reading 
.................... #FUSES BROWNOUT                //No brownout reset 
.................... //#FUSES BORV20                    //Brownout reset at 2.0V 
.................... #FUSES NOPUT                     //No Power Up Timer 
.................... #FUSES NOCPD                     //No EE protection 
.................... #FUSES STVREN                    //Stack full/underflow will cause reset 
.................... #FUSES NODEBUG                   //No Debug mode for ICD 
.................... #FUSES NOLVP                     //No low voltage prgming, B3(PIC16) or B5(PIC18) used for I/O 
.................... #FUSES NOWRT                     //Program memory not write protected 
.................... #FUSES NOWRTD                    //Data EEPROM not write protected 
.................... #FUSES NOIESO                      //Internal External Switch Over mode enabled 
.................... #FUSES NOFCMEN                     //Fail-safe clock monitor enabled 
.................... #FUSES NOPBADEN                 ///PORTB pins are configured as analog input channels on RESET 
.................... #FUSES NOWRTC                    //configuration not registers write protected 
.................... #FUSES NOWRTB                    //Boot block not write protected 
.................... #FUSES NOEBTR                    //Memory not protected from table reads 
.................... #FUSES NOEBTRB                   //Boot block not protected from table reads 
.................... #FUSES NOCPB                     //No Boot Block code protection 
.................... #FUSES MCLR                      //Master Clear pin enabled 
.................... #FUSES NOLPT1OSC                   //Timer1 configured for low-power operation 
.................... #FUSES NOXINST                   //Extended set extension and Indexed Addressing mode disabled (Legacy mode) 
.................... #FUSES PLL5                      //Divide By 12(48MHz oscillator input) 
.................... #FUSES CPUDIV1                   //System Clock by 2 
.................... #FUSES USBDIV                    //USB clock source comes from PLL divide by 2 
.................... #FUSES VREGEN                    //USB voltage regulator enabled 
.................... //#FUSES ICPRT                     //ICPRT enabled 
.................... #FUSES WRTB 
.................... #FUSES NOICPRT  
.................... #FUSES NOLPT1OSC 
.................... #FUSES CCP2B3  
.................... #FUSES NOCPB 
.................... #FUSES NOCPD 
.................... #FUSES NOWRTC 
.................... #FUSES NOWRTD 
.................... #FUSES NOEBTR 
.................... #FUSES NOEBTRB               
....................  
.................... /* systm clock is 48 MHz */ 
.................... #use delay(clock=48000000,RESTART_WDT) 
*
00DA:  CLRF   FEA
00DC:  MOVLW  18
00DE:  MOVWF  FE9
00E0:  MOVF   FEF,W
00E2:  BZ    0104
00E4:  MOVLW  0F
00E6:  MOVWF  01
00E8:  MOVLW  BF
00EA:  MOVWF  00
00EC:  CLRWDT
00EE:  DECFSZ 00,F
00F0:  BRA    00EC
00F2:  DECFSZ 01,F
00F4:  BRA    00E8
00F6:  MOVLW  8F
00F8:  MOVWF  00
00FA:  DECFSZ 00,F
00FC:  BRA    00FA
00FE:  CLRWDT
0100:  DECFSZ FEF,F
0102:  BRA    00E4
0104:  RETURN 0
.................... /* --- BEGIN: changes required for bootloader ------------------------------ */ 
....................  
.................... /* ------------------------------------------------------------------------- */ 
.................... /* map reset vector and interrupt vector                                     */ 
.................... /* 0x000-0x7FF is used by the bootloader. The bootloader maps the original   */ 
.................... /* reset vecotr (0x000) to 0x800 and the reset vector (0x008) to 0x800.      */ 
.................... /* ------------------------------------------------------------------------- */ 
.................... //#build (reset=0x800, interrupt=0x808) 
....................  
.................... /* ------------------------------------------------------------------------- */ 
.................... /* reserve boot block area                                                   */ 
.................... /* This memory range is used by the bootloader, so the application must not  */ 
.................... /* use this area.                                                            */ 
.................... /* ------------------------------------------------------------------------- */ 
.................... //#org 0, 0x7FF {} 
....................  
.................... /* --- END: changes required for bootloader -------------------------------- */ 
....................  
....................  
....................  
....................  
....................  
....................  
.................... #use standard_io (A) // Standard Eisodoi & Eksodoi 
.................... #use standard_io (B) // Standard Eisodoi & Eksodoi 
.................... #use standard_io (C) // Standard Eisodoi & Eksodoi 
.................... #byte PORTA =0xF80 // Orismos ton thiron me ti thesi tous sti mnimi 
.................... #byte PORTB =0xF81 // Orismos ton thiron me ti thesi tous sti mnimi 
.................... #byte PORTC =0xF82 // Orismos ton thiron me ti thesi tous sti mnimi 
.................... #byte PORTD =0xF83 // Orismos ton thiron me ti thesi tous sti mnimi 
.................... #byte PORTE =0xF84 // Orismos ton thiron me ti thesi tous sti mnimi 
....................  
.................... // Dilosi global metavliton 
.................... int1 go; 
.................... int8 delay; 
....................  
.................... // Dilosi sinartiseon 
.................... void init(void); 
.................... void ext_int(void); 
.................... void ext_int2(void); 
....................  
.................... void main() 
0106:  CLRF   FF8
0108:  BCF    FD0.7
010A:  BSF    07.7
010C:  MOVF   FC1,W
010E:  ANDLW  C0
0110:  IORLW  0F
0112:  MOVWF  FC1
0114:  MOVLW  07
0116:  MOVWF  FB4
.................... { 
....................    init(); 
0118:  BRA    00BA
....................    while (TRUE) { 
....................       if (go) { 
011A:  BTFSS  16.0
011C:  BRA    012E
....................          PORTD = 0xff; 
011E:  SETF   F83
....................          delay_ms(delay);       
0120:  MOVFF  17,18
0124:  RCALL  00DA
....................          PORTD = 0x00; 
0126:  CLRF   F83
....................          delay_ms(delay);       
0128:  MOVFF  17,18
012C:  RCALL  00DA
....................       } 
012E:  BRA    011A
....................    } 
.................... } 
....................  
.................... #INT_EXT // Diakopi me megali proteraiotita 
.................... void ext_int(void) { 
0130:  SLEEP 
....................    go = 1; 
*
00A2:  BSF    16.0
....................    delay = 125; 
00A4:  MOVLW  7D
00A6:  MOVWF  17
.................... } 
....................  
00A8:  BCF    FF2.1
00AA:  GOTO   0060
.................... #INT_EXT2 // Diakopi me megali proteraiotita 
.................... void ext_int2(void) { 
....................    go = 1; 
00AE:  BSF    16.0
....................    delay = 50; 
00B0:  MOVLW  32
00B2:  MOVWF  17
00B4:  BCF    FF0.1
00B6:  GOTO   0060
.................... } 
....................  
.................... void init(void) { 
....................    set_tris_b(0xff); // Orismos tou PORTB san eisodo (1) 
00BA:  MOVLW  FF
00BC:  MOVWF  F93
....................    set_tris_d(0x00); // Orismos tou PORTD san eksodo (0) 
00BE:  MOVLW  00
00C0:  MOVWF  F95
....................    go = 0; 
00C2:  BCF    16.0
....................    delay = 0; 
00C4:  CLRF   17
....................    PORTD = 0; 
00C6:  CLRF   F83
....................    port_b_pullups(TRUE); 
00C8:  BCF    FF1.7
....................    ext_int_edge(0, H_TO_L); 
00CA:  BCF    FF1.6
....................    ext_int_edge(2, H_TO_L); 
00CC:  BCF    FF1.4
....................    enable_interrupts(INT_EXT); // Energopoiisi eksoterikis diakopis RB0 
00CE:  BSF    FF2.4
....................    enable_interrupts(INT_EXT2); // Energopoiisi eksoterikis diakopis RB2 
00D0:  BSF    FF0.4
....................    enable_interrupts(GLOBAL); // Energopoiisi genikou diakopti diakopon 
00D2:  MOVLW  C0
00D4:  IORWF  FF2,F
00D6:  GOTO   011A (RETURN)
.................... } 
....................  
....................  

Configuration Fuses:
   Word  1: 0E24   PLL5 CPUDIV1 USBDIV HSPLL NOFCMEN NOIESO
   Word  2: 1E3F   NOPUT BROWNOUT BORV21 VREGEN NOWDT WDT32768
   Word  3: 8000   CCP2B3 NOPBADEN NOLPT1OSC MCLR
   Word  4: 0081   STVREN NOLVP ICSP1 NOXINST NODEBUG
   Word  5: C00F   NOPROTECT NOCPB NOCPD
   Word  6: A00F   NOWRT NOWRTC WRTB NOWRTD
   Word  7: 400F   NOEBTR NOEBTRB
