CCS PCH C Compiler, Version 5.011, 5967               22-בס-25 23:50

               Filename:   F:\Common\Programming\GitHub\DIPAE_EnsomatomenaSystimata_6th_Term\Askisi3\Askisi3.1\askisi3_1.lst

               ROM used:   260 bytes (1%)
                           Largest free fragment is 32504
               RAM used:   23 (1%) at main() level
                           24 (1%) worst case
               Stack used: 2 locations (1 in main + 1 for interrupts)
               Stack size: 31

*
0000:  GOTO   00EE
*
0008:  MOVWF  04
000A:  MOVFF  FD8,05
000E:  MOVFF  FE0,06
0012:  MOVLB  0
0014:  MOVFF  FE9,0C
0018:  MOVFF  FEA,07
001C:  MOVFF  FE1,08
0020:  MOVFF  FE2,09
0024:  MOVFF  FD9,0A
0028:  MOVFF  FDA,0B
002C:  MOVFF  FF3,12
0030:  MOVFF  FF4,13
0034:  MOVFF  FFA,14
0038:  MOVFF  00,0E
003C:  MOVFF  01,0F
0040:  MOVFF  02,10
0044:  MOVFF  03,11
0048:  BTFSS  FF0.3
004A:  GOTO   0054
004E:  BTFSC  FF0.0
0050:  GOTO   00A2
0054:  BTFSS  FF0.4
0056:  GOTO   0060
005A:  BTFSC  FF0.1
005C:  GOTO   00BC
0060:  MOVFF  0E,00
0064:  MOVFF  0F,01
0068:  MOVFF  10,02
006C:  MOVFF  11,03
0070:  MOVFF  0C,FE9
0074:  MOVFF  07,FEA
0078:  BSF    07.7
007A:  MOVFF  08,FE1
007E:  MOVFF  09,FE2
0082:  MOVFF  0A,FD9
0086:  MOVFF  0B,FDA
008A:  MOVFF  12,FF3
008E:  MOVFF  13,FF4
0092:  MOVFF  14,FFA
0096:  MOVF   04,W
0098:  MOVFF  06,FE0
009C:  MOVFF  05,FD8
00A0:  RETFIE 0
.................... // DIPAE - Enosmatomena Systimata - 6o Eksamino 
.................... // Alevropoulos Panagiotis 
.................... // AM: 2022005 
.................... // Askisi 3.1 
.................... #include <main_.h> 
.................... #include <18F4550.h> 
.................... //////// Standard Header file for the PIC18F4550 device //////////////// 
.................... #device PIC18F4550 
....................  
.................... #list 
....................  
.................... #device adc=10 
....................  
.................... #FUSES NOWDT                     //No Watch Dog Timer 
.................... #FUSES WDT32768                    //Watch Dog Timer uses 1:128 Postscale 
.................... #FUSES HSPLL                     //High Speed Crystal/Resonator with PLL enabled 
.................... #FUSES NOPROTECT                 //Code not protected from reading 
.................... #FUSES BROWNOUT                //No brownout reset 
.................... //#FUSES BORV20                    //Brownout reset at 2.0V 
.................... #FUSES NOPUT                     //No Power Up Timer 
.................... #FUSES NOCPD                     //No EE protection 
.................... #FUSES STVREN                    //Stack full/underflow will cause reset 
.................... #FUSES NODEBUG                   //No Debug mode for ICD 
.................... #FUSES NOLVP                     //No low voltage prgming, B3(PIC16) or B5(PIC18) used for I/O 
.................... #FUSES NOWRT                     //Program memory not write protected 
.................... #FUSES NOWRTD                    //Data EEPROM not write protected 
.................... #FUSES NOIESO                      //Internal External Switch Over mode enabled 
.................... #FUSES NOFCMEN                     //Fail-safe clock monitor enabled 
.................... #FUSES NOPBADEN                 ///PORTB pins are configured as analog input channels on RESET 
.................... #FUSES NOWRTC                    //configuration not registers write protected 
.................... #FUSES NOWRTB                    //Boot block not write protected 
.................... #FUSES NOEBTR                    //Memory not protected from table reads 
.................... #FUSES NOEBTRB                   //Boot block not protected from table reads 
.................... #FUSES NOCPB                     //No Boot Block code protection 
.................... #FUSES MCLR                      //Master Clear pin enabled 
.................... #FUSES NOLPT1OSC                   //Timer1 configured for low-power operation 
.................... #FUSES NOXINST                   //Extended set extension and Indexed Addressing mode disabled (Legacy mode) 
.................... #FUSES PLL5                      //Divide By 12(48MHz oscillator input) 
.................... #FUSES CPUDIV1                   //System Clock by 2 
.................... #FUSES USBDIV                    //USB clock source comes from PLL divide by 2 
.................... #FUSES VREGEN                    //USB voltage regulator enabled 
.................... //#FUSES ICPRT                     //ICPRT enabled 
.................... #FUSES WRTB 
.................... #FUSES NOICPRT  
.................... #FUSES NOLPT1OSC 
.................... #FUSES CCP2B3  
.................... #FUSES NOCPB 
.................... #FUSES NOCPD 
.................... #FUSES NOWRTC 
.................... #FUSES NOWRTD 
.................... #FUSES NOEBTR 
.................... #FUSES NOEBTRB               
....................  
.................... /* systm clock is 48 MHz */ 
.................... #use delay(clock=48000000,RESTART_WDT) 
.................... /* --- BEGIN: changes required for bootloader ------------------------------ */ 
....................  
.................... /* ------------------------------------------------------------------------- */ 
.................... /* map reset vector and interrupt vector                                     */ 
.................... /* 0x000-0x7FF is used by the bootloader. The bootloader maps the original   */ 
.................... /* reset vecotr (0x000) to 0x800 and the reset vector (0x008) to 0x800.      */ 
.................... /* ------------------------------------------------------------------------- */ 
.................... //#build (reset=0x800, interrupt=0x808) 
....................  
.................... /* ------------------------------------------------------------------------- */ 
.................... /* reserve boot block area                                                   */ 
.................... /* This memory range is used by the bootloader, so the application must not  */ 
.................... /* use this area.                                                            */ 
.................... /* ------------------------------------------------------------------------- */ 
.................... //#org 0, 0x7FF {} 
....................  
.................... /* --- END: changes required for bootloader -------------------------------- */ 
....................  
....................  
....................  
....................  
....................  
....................  
.................... #use standard_io (A) // Standard Eisodoi & Eksodoi 
.................... #use standard_io (B) // Standard Eisodoi & Eksodoi 
.................... #use standard_io (C) // Standard Eisodoi & Eksodoi 
.................... #byte PORTA =0xF80 // Orismos ton thiron me ti thesi tous sti mnimi 
.................... #byte PORTB =0xF81 // Orismos ton thiron me ti thesi tous sti mnimi 
.................... #byte PORTC =0xF82 // Orismos ton thiron me ti thesi tous sti mnimi 
.................... #byte PORTD =0xF83 // Orismos ton thiron me ti thesi tous sti mnimi 
.................... #byte PORTE =0xF84 // Orismos ton thiron me ti thesi tous sti mnimi 
....................  
.................... // Dilosi global metavliton 
.................... int8 counter = 0; 
....................  
.................... // Dilosi sinartiseon 
.................... void ext_int1(void); 
.................... void init(void); 
....................  
.................... void main() 
*
00EE:  CLRF   FF8
00F0:  BCF    FD0.7
00F2:  BSF    07.7
00F4:  CLRF   16
00F6:  MOVF   FC1,W
00F8:  ANDLW  C0
00FA:  IORLW  0F
00FC:  MOVWF  FC1
00FE:  MOVLW  07
0100:  MOVWF  FB4
.................... { 
....................    init(); 
0102:  BRA    00D4
....................    while (TRUE) { 
0104:  BRA    0104
....................    } 
.................... } 
....................  
.................... #INT_EXT1 // Diakopi me megali proteraiotita 
.................... void ext_int1(void) { 
0106:  SLEEP 
....................    if (bit_test(PORTB, 7) == 1) 
*
00A2:  BTFSS  F81.7
00A4:  BRA    00B2
....................       if ((bit_test(PORTB, 1) == 1) && counter < 0xff) 
00A6:  BTFSS  F81.1
00A8:  BRA    00B2
00AA:  INCFSZ 16,W
00AC:  BRA    00B0
00AE:  BRA    00B2
....................          counter++; 
00B0:  INCF   16,F
....................    PORTD = counter; 
00B2:  MOVFF  16,F83
.................... } 
....................  
00B6:  BCF    FF0.0
00B8:  GOTO   0060
.................... #INT_EXT2 // Diakopi me megali proteraiotita 
.................... void ext_int2(void) { 
....................    if (bit_test(PORTB, 7) == 0) 
00BC:  BTFSC  F81.7
00BE:  BRA    00CA
....................       if ((bit_test(PORTB, 2) == 1)  && counter > 0)  
00C0:  BTFSS  F81.2
00C2:  BRA    00CA
00C4:  MOVF   16,F
00C6:  BZ    00CA
....................          counter--; 
00C8:  DECF   16,F
....................    PORTD = counter; 
00CA:  MOVFF  16,F83
00CE:  BCF    FF0.1
00D0:  GOTO   0060
.................... } 
....................  
.................... void init(void) { 
....................    set_tris_b(0xff); // Orismos tou PORTB san eisodo (1) 
00D4:  MOVLW  FF
00D6:  MOVWF  F93
....................    set_tris_d(0x00); // Orismos tou PORTD san eksodo (0) 
00D8:  MOVLW  00
00DA:  MOVWF  F95
....................    counter = 0; 
00DC:  CLRF   16
....................    PORTD = counter; 
00DE:  MOVFF  16,F83
....................    // DEN XREIAZONTAI TA PARAKATO? GIATI? 
.................... //   port_b_pullups(TRUE); 
.................... //   ext_int_edge(1, H_TO_L); 
.................... //   ext_int_edge(2, H_TO_L); 
....................    enable_interrupts(INT_EXT1); // Energopoiisi eksoterikis diakopis RB1 
00E2:  BSF    FF0.3
....................    enable_interrupts(INT_EXT2); // Energopoiisi eksoterikis diakopis RB2 
00E4:  BSF    FF0.4
....................    enable_interrupts(GLOBAL); // Energopoiisi genikou diakopti diakopon 
00E6:  MOVLW  C0
00E8:  IORWF  FF2,F
00EA:  GOTO   0104 (RETURN)
.................... } 
....................  
....................  

Configuration Fuses:
   Word  1: 0E24   PLL5 CPUDIV1 USBDIV HSPLL NOFCMEN NOIESO
   Word  2: 1E3F   NOPUT BROWNOUT BORV21 VREGEN NOWDT WDT32768
   Word  3: 8000   CCP2B3 NOPBADEN NOLPT1OSC MCLR
   Word  4: 0081   STVREN NOLVP ICSP1 NOXINST NODEBUG
   Word  5: C00F   NOPROTECT NOCPB NOCPD
   Word  6: A00F   NOWRT NOWRTC WRTB NOWRTD
   Word  7: 400F   NOEBTR NOEBTRB
