CCS PCH C Compiler, Version 5.011, 5967               05-Απρ-25 19:26

               Filename:   D:\Common\Programming\GitHub\DIPAE_EnsomatomenaSystimata_6th_Term\Askisi5\TestIndicator\testIndicator.lst

               ROM used:   324 bytes (1%)
                           Largest free fragment is 32440
               RAM used:   40 (2%) at main() level
                           40 (2%) worst case
               Stack used: 2 locations (1 in main + 1 for interrupts)
               Stack size: 31

*
0000:  GOTO   00EA
*
0008:  MOVWF  04
000A:  MOVFF  FD8,05
000E:  MOVFF  FE0,06
0012:  MOVLB  0
0014:  MOVFF  FE9,0C
0018:  MOVFF  FEA,07
001C:  MOVFF  FE1,08
0020:  MOVFF  FE2,09
0024:  MOVFF  FD9,0A
0028:  MOVFF  FDA,0B
002C:  MOVFF  FF3,12
0030:  MOVFF  FF4,13
0034:  MOVFF  FFA,14
0038:  MOVFF  00,0E
003C:  MOVFF  01,0F
0040:  MOVFF  02,10
0044:  MOVFF  03,11
0048:  BTFSS  FF2.5
004A:  GOTO   0054
004E:  BTFSC  FF2.2
0050:  GOTO   0096
0054:  MOVFF  0E,00
0058:  MOVFF  0F,01
005C:  MOVFF  10,02
0060:  MOVFF  11,03
0064:  MOVFF  0C,FE9
0068:  MOVFF  07,FEA
006C:  BSF    07.7
006E:  MOVFF  08,FE1
0072:  MOVFF  09,FE2
0076:  MOVFF  0A,FD9
007A:  MOVFF  0B,FDA
007E:  MOVFF  12,FF3
0082:  MOVFF  13,FF4
0086:  MOVFF  14,FFA
008A:  MOVF   04,W
008C:  MOVFF  06,FE0
0090:  MOVFF  05,FD8
0094:  RETFIE 0
.................... // DIPAE - Enosmatomena Systimata - 6o Eksamino 
.................... // Alevropoulos Panagiotis 
.................... // AM: 2022005 
.................... // Askisi: Test endeikti 8 tomeon 
.................... #include <main_.h> // Gia ektelesi se Proteus 
.................... #include <18F4550.h> 
.................... //////// Standard Header file for the PIC18F4550 device //////////////// 
.................... #device PIC18F4550 
....................  
.................... #list 
....................  
.................... #device adc=10 
....................  
.................... #FUSES NOWDT                     //No Watch Dog Timer 
.................... #FUSES WDT32768                    //Watch Dog Timer uses 1:128 Postscale 
.................... #FUSES HSPLL                     //High Speed Crystal/Resonator with PLL enabled 
.................... #FUSES NOPROTECT                 //Code not protected from reading 
.................... #FUSES BROWNOUT                //No brownout reset 
.................... //#FUSES BORV20                    //Brownout reset at 2.0V 
.................... #FUSES NOPUT                     //No Power Up Timer 
.................... #FUSES NOCPD                     //No EE protection 
.................... #FUSES STVREN                    //Stack full/underflow will cause reset 
.................... #FUSES NODEBUG                   //No Debug mode for ICD 
.................... #FUSES NOLVP                     //No low voltage prgming, B3(PIC16) or B5(PIC18) used for I/O 
.................... #FUSES NOWRT                     //Program memory not write protected 
.................... #FUSES NOWRTD                    //Data EEPROM not write protected 
.................... #FUSES NOIESO                      //Internal External Switch Over mode enabled 
.................... #FUSES NOFCMEN                     //Fail-safe clock monitor enabled 
.................... #FUSES NOPBADEN                 ///PORTB pins are configured as analog input channels on RESET 
.................... #FUSES NOWRTC                    //configuration not registers write protected 
.................... #FUSES NOWRTB                    //Boot block not write protected 
.................... #FUSES NOEBTR                    //Memory not protected from table reads 
.................... #FUSES NOEBTRB                   //Boot block not protected from table reads 
.................... #FUSES NOCPB                     //No Boot Block code protection 
.................... #FUSES MCLR                      //Master Clear pin enabled 
.................... #FUSES NOLPT1OSC                   //Timer1 configured for low-power operation 
.................... #FUSES NOXINST                   //Extended set extension and Indexed Addressing mode disabled (Legacy mode) 
.................... #FUSES PLL5                      //Divide By 12(48MHz oscillator input) 
.................... #FUSES CPUDIV1                   //System Clock by 2 
.................... #FUSES USBDIV                    //USB clock source comes from PLL divide by 2 
.................... #FUSES VREGEN                    //USB voltage regulator enabled 
.................... //#FUSES ICPRT                     //ICPRT enabled 
.................... #FUSES WRTB 
.................... #FUSES NOICPRT  
.................... #FUSES NOLPT1OSC 
.................... #FUSES CCP2B3  
.................... #FUSES NOCPB 
.................... #FUSES NOCPD 
.................... #FUSES NOWRTC 
.................... #FUSES NOWRTD 
.................... #FUSES NOEBTR 
.................... #FUSES NOEBTRB               
....................  
.................... /* systm clock is 48 MHz */ 
.................... #use delay(clock=48000000,RESTART_WDT) 
.................... /* --- BEGIN: changes required for bootloader ------------------------------ */ 
....................  
.................... /* ------------------------------------------------------------------------- */ 
.................... /* map reset vector and interrupt vector                                     */ 
.................... /* 0x000-0x7FF is used by the bootloader. The bootloader maps the original   */ 
.................... /* reset vecotr (0x000) to 0x800 and the reset vector (0x008) to 0x800.      */ 
.................... /* ------------------------------------------------------------------------- */ 
.................... //#build (reset=0x800, interrupt=0x808) 
....................  
.................... /* ------------------------------------------------------------------------- */ 
.................... /* reserve boot block area                                                   */ 
.................... /* This memory range is used by the bootloader, so the application must not  */ 
.................... /* use this area.                                                            */ 
.................... /* ------------------------------------------------------------------------- */ 
.................... //#org 0, 0x7FF {} 
....................  
.................... /* --- END: changes required for bootloader -------------------------------- */ 
....................  
....................  
....................  
....................  
....................  
.................... //#include <main.h> // Gia ektelesi se PIC 
....................  
.................... #use standard_io (A) // Standard Eisodoi & Eksodoi 
.................... #use standard_io (B) // Standard Eisodoi & Eksodoi 
.................... #use standard_io (C) // Standard Eisodoi & Eksodoi 
.................... #byte PORTA =0xF80 // Orismos ton thiron me ti thesi tous sti mnimi 
.................... #byte PORTB =0xF81 // Orismos ton thiron me ti thesi tous sti mnimi 
.................... #byte PORTC =0xF82 // Orismos ton thiron me ti thesi tous sti mnimi 
.................... #byte PORTD =0xF83 // Orismos ton thiron me ti thesi tous sti mnimi 
.................... #byte PORTE =0xF84 // Orismos ton thiron me ti thesi tous sti mnimi 
....................  
.................... const int16 timer_start_value = 18661; // Orismos arxikis timis timer0; 
....................  
.................... int8 digitsTable[] = {0x3f, // 0b00111111 -> 0 
....................                       0x06, // 0b00000110 -> 1 
....................                       0x5b, // 0b01011011 -> 2 
....................                       0x4f, // 0b01001111 -> 3 
....................                       0x66, // 0b01100110 -> 4 
....................                       0x6d, // 0b01101101 -> 5 
....................                       0x7d, // 0b01111101 -> 6 
....................                       0x07, // 0b00000111 -> 7 
....................                       0x7f, // 0b01111111 -> 8 
....................                       0x6f, // 0b01101111 -> 9 
....................                       0x77, // 0b01110111 -> A 
....................                       0x7c, // 0b01111100 -> b 
....................                       0x39, // 0b00111001 -> C 
....................                       0x5e, // 0b01011110 -> d 
....................                       0x79, // 0b01111001 -> E 
....................                       0x71, // 0b01110001 -> F 
....................                       0x80}; // 0b10000000 -> Dot Point 
....................                        
.................... int8 i = 0; 
.................... // Dilosi sinartiseon eksipiretisis 
.................... void timer0_int(void); 
.................... void init(void); 
....................  
.................... void main() 
*
00EA:  CLRF   FF8
00EC:  BCF    FD0.7
00EE:  BSF    07.7
00F0:  CLRF   27
00F2:  MOVF   FC1,W
00F4:  ANDLW  C0
00F6:  IORLW  0F
00F8:  MOVWF  FC1
00FA:  MOVLW  07
00FC:  MOVWF  FB4
00FE:  MOVLW  3F
0100:  MOVWF  16
0102:  MOVLW  06
0104:  MOVWF  17
0106:  MOVLW  5B
0108:  MOVWF  18
010A:  MOVLW  4F
010C:  MOVWF  19
010E:  MOVLW  66
0110:  MOVWF  1A
0112:  MOVLW  6D
0114:  MOVWF  1B
0116:  MOVLW  7D
0118:  MOVWF  1C
011A:  MOVLW  07
011C:  MOVWF  1D
011E:  MOVLW  7F
0120:  MOVWF  1E
0122:  MOVLW  6F
0124:  MOVWF  1F
0126:  MOVLW  77
0128:  MOVWF  20
012A:  MOVLW  7C
012C:  MOVWF  21
012E:  MOVLW  39
0130:  MOVWF  22
0132:  MOVLW  5E
0134:  MOVWF  23
0136:  MOVLW  79
0138:  MOVWF  24
013A:  MOVLW  71
013C:  MOVWF  25
013E:  MOVLW  80
0140:  MOVWF  26
.................... { 
....................    init(); 
0142:  BRA    00C4
....................    while (TRUE) { 
0144:  BRA    0144
....................    } 
.................... }    
....................  
.................... #INT_TIMER0 
.................... void timer0_int(void) { 
0146:  SLEEP 
....................    set_timer0(timer_start_value); 
*
0096:  MOVLW  48
0098:  MOVWF  FD7
009A:  MOVLW  E5
009C:  MOVWF  FD6
....................    PORTB = 0; 
009E:  CLRF   F81
....................    PORTB = digitsTable[i]; 
00A0:  CLRF   03
00A2:  MOVF   27,W
00A4:  ADDLW  16
00A6:  MOVWF  FE9
00A8:  MOVLW  00
00AA:  ADDWFC 03,W
00AC:  MOVWF  FEA
00AE:  MOVFF  FEF,F81
....................    if (i < sizeof(digitsTable) - 1) 
00B2:  MOVF   27,W
00B4:  SUBLW  0F
00B6:  BNC   00BC
....................       i++; 
00B8:  INCF   27,F
00BA:  BRA    00BE
....................    else 
....................       i = 0; 
00BC:  CLRF   27
00BE:  BCF    FF2.2
00C0:  GOTO   0054
.................... } 
....................  
.................... void init(void) { 
....................    set_tris_b(0x00); // Orismos tou PORTB san eksodo (0) 
00C4:  MOVLW  00
00C6:  MOVWF  F93
....................    set_tris_c(0x2); // Orismos tou PORTBC PIN2 san eksodo (1) gia ti geiosi tou Endeikti 
00C8:  MOVLW  02
00CA:  MOVWF  F94
....................    set_tris_d(0xff); // Orismos tou PORTD san eisodo (1) 
00CC:  MOVLW  FF
00CE:  MOVWF  F95
....................    output_high(PIN_C2); 
00D0:  BCF    F94.2
00D2:  BSF    F8B.2
....................    set_timer0(timer_start_value); 
00D4:  MOVLW  48
00D6:  MOVWF  FD7
00D8:  MOVLW  E5
00DA:  MOVWF  FD6
....................     
....................    SETUP_TIMER_0(T0_INTERNAL | T0_DIV_64); 
00DC:  MOVLW  85
00DE:  MOVWF  FD5
....................    enable_interrupts(INT_TIMER0); 
00E0:  BSF    FF2.5
....................    enable_interrupts(GLOBAL); // Energopoiisi genikou diakopti diakopon 
00E2:  MOVLW  C0
00E4:  IORWF  FF2,F
00E6:  GOTO   0144 (RETURN)
.................... } 
....................  

Configuration Fuses:
   Word  1: 0E24   PLL5 CPUDIV1 USBDIV HSPLL NOFCMEN NOIESO
   Word  2: 1E3F   NOPUT BROWNOUT BORV21 VREGEN NOWDT WDT32768
   Word  3: 8000   CCP2B3 NOPBADEN NOLPT1OSC MCLR
   Word  4: 0081   STVREN NOLVP ICSP1 NOXINST NODEBUG
   Word  5: C00F   NOPROTECT NOCPB NOCPD
   Word  6: A00F   NOWRT NOWRTC WRTB NOWRTD
   Word  7: 400F   NOEBTR NOEBTRB
