CCS PCH C Compiler, Version 5.011, 5967               22-בס-25 23:05

               Filename:   F:\Common\Programming\GitHub\DIPAE_EnsomatomenaSystimata_6th_Term\Askisi3\TestInterrupts1\testint1.lst

               ROM used:   280 bytes (1%)
                           Largest free fragment is 32484
               RAM used:   23 (1%) at main() level
                           25 (1%) worst case
               Stack used: 3 locations (1 in main + 2 for interrupts)
               Stack size: 31

*
0000:  GOTO   0100
*
0008:  MOVWF  04
000A:  MOVFF  FD8,05
000E:  MOVFF  FE0,06
0012:  MOVLB  0
0014:  MOVFF  FE9,0C
0018:  MOVFF  FEA,07
001C:  MOVFF  FE1,08
0020:  MOVFF  FE2,09
0024:  MOVFF  FD9,0A
0028:  MOVFF  FDA,0B
002C:  MOVFF  FF3,12
0030:  MOVFF  FF4,13
0034:  MOVFF  FFA,14
0038:  MOVFF  00,0E
003C:  MOVFF  01,0F
0040:  MOVFF  02,10
0044:  MOVFF  03,11
0048:  BTFSS  FF2.4
004A:  GOTO   0054
004E:  BTFSC  FF2.1
0050:  GOTO   00C4
0054:  MOVFF  0E,00
0058:  MOVFF  0F,01
005C:  MOVFF  10,02
0060:  MOVFF  11,03
0064:  MOVFF  0C,FE9
0068:  MOVFF  07,FEA
006C:  BSF    07.7
006E:  MOVFF  08,FE1
0072:  MOVFF  09,FE2
0076:  MOVFF  0A,FD9
007A:  MOVFF  0B,FDA
007E:  MOVFF  12,FF3
0082:  MOVFF  13,FF4
0086:  MOVFF  14,FFA
008A:  MOVF   04,W
008C:  MOVFF  06,FE0
0090:  MOVFF  05,FD8
0094:  RETFIE 0
.................... // DIPAE - Enosmatomena Systimata - 6o Eksamino 
.................... // Alevropoulos Panagiotis 
.................... // AM: 2022005 
.................... // Test Interrupts #1 
.................... #include <main_.h> 
.................... #include <18F4550.h> 
.................... //////// Standard Header file for the PIC18F4550 device //////////////// 
.................... #device PIC18F4550 
....................  
.................... #list 
....................  
.................... #device adc=10 
....................  
.................... #FUSES NOWDT                     //No Watch Dog Timer 
.................... #FUSES WDT32768                    //Watch Dog Timer uses 1:128 Postscale 
.................... #FUSES HSPLL                     //High Speed Crystal/Resonator with PLL enabled 
.................... #FUSES NOPROTECT                 //Code not protected from reading 
.................... #FUSES BROWNOUT                //No brownout reset 
.................... //#FUSES BORV20                    //Brownout reset at 2.0V 
.................... #FUSES NOPUT                     //No Power Up Timer 
.................... #FUSES NOCPD                     //No EE protection 
.................... #FUSES STVREN                    //Stack full/underflow will cause reset 
.................... #FUSES NODEBUG                   //No Debug mode for ICD 
.................... #FUSES NOLVP                     //No low voltage prgming, B3(PIC16) or B5(PIC18) used for I/O 
.................... #FUSES NOWRT                     //Program memory not write protected 
.................... #FUSES NOWRTD                    //Data EEPROM not write protected 
.................... #FUSES NOIESO                      //Internal External Switch Over mode enabled 
.................... #FUSES NOFCMEN                     //Fail-safe clock monitor enabled 
.................... #FUSES NOPBADEN                 ///PORTB pins are configured as analog input channels on RESET 
.................... #FUSES NOWRTC                    //configuration not registers write protected 
.................... #FUSES NOWRTB                    //Boot block not write protected 
.................... #FUSES NOEBTR                    //Memory not protected from table reads 
.................... #FUSES NOEBTRB                   //Boot block not protected from table reads 
.................... #FUSES NOCPB                     //No Boot Block code protection 
.................... #FUSES MCLR                      //Master Clear pin enabled 
.................... #FUSES NOLPT1OSC                   //Timer1 configured for low-power operation 
.................... #FUSES NOXINST                   //Extended set extension and Indexed Addressing mode disabled (Legacy mode) 
.................... #FUSES PLL5                      //Divide By 12(48MHz oscillator input) 
.................... #FUSES CPUDIV1                   //System Clock by 2 
.................... #FUSES USBDIV                    //USB clock source comes from PLL divide by 2 
.................... #FUSES VREGEN                    //USB voltage regulator enabled 
.................... //#FUSES ICPRT                     //ICPRT enabled 
.................... #FUSES WRTB 
.................... #FUSES NOICPRT  
.................... #FUSES NOLPT1OSC 
.................... #FUSES CCP2B3  
.................... #FUSES NOCPB 
.................... #FUSES NOCPD 
.................... #FUSES NOWRTC 
.................... #FUSES NOWRTD 
.................... #FUSES NOEBTR 
.................... #FUSES NOEBTRB               
....................  
.................... /* systm clock is 48 MHz */ 
.................... #use delay(clock=48000000,RESTART_WDT) 
0096:  CLRF   FEA
0098:  MOVLW  18
009A:  MOVWF  FE9
009C:  MOVF   FEF,W
009E:  BZ    00C0
00A0:  MOVLW  0F
00A2:  MOVWF  01
00A4:  MOVLW  BF
00A6:  MOVWF  00
00A8:  CLRWDT
00AA:  DECFSZ 00,F
00AC:  BRA    00A8
00AE:  DECFSZ 01,F
00B0:  BRA    00A4
00B2:  MOVLW  8F
00B4:  MOVWF  00
00B6:  DECFSZ 00,F
00B8:  BRA    00B6
00BA:  CLRWDT
00BC:  DECFSZ FEF,F
00BE:  BRA    00A0
00C0:  GOTO   00DC (RETURN)
.................... /* --- BEGIN: changes required for bootloader ------------------------------ */ 
....................  
.................... /* ------------------------------------------------------------------------- */ 
.................... /* map reset vector and interrupt vector                                     */ 
.................... /* 0x000-0x7FF is used by the bootloader. The bootloader maps the original   */ 
.................... /* reset vecotr (0x000) to 0x800 and the reset vector (0x008) to 0x800.      */ 
.................... /* ------------------------------------------------------------------------- */ 
.................... //#build (reset=0x800, interrupt=0x808) 
....................  
.................... /* ------------------------------------------------------------------------- */ 
.................... /* reserve boot block area                                                   */ 
.................... /* This memory range is used by the bootloader, so the application must not  */ 
.................... /* use this area.                                                            */ 
.................... /* ------------------------------------------------------------------------- */ 
.................... //#org 0, 0x7FF {} 
....................  
.................... /* --- END: changes required for bootloader -------------------------------- */ 
....................  
....................  
....................  
....................  
....................  
....................  
.................... #use standard_io (A) // Standard Eisodoi & Eksodoi 
.................... #use standard_io (B) // Standard Eisodoi & Eksodoi 
.................... #use standard_io (C) // Standard Eisodoi & Eksodoi 
.................... #byte PORTA =0xF80 // Orismos ton thiron me ti thesi tous sti mnimi 
.................... #byte PORTB =0xF81 // Orismos ton thiron me ti thesi tous sti mnimi 
.................... #byte PORTC =0xF82 // Orismos ton thiron me ti thesi tous sti mnimi 
.................... #byte PORTD =0xF83 // Orismos ton thiron me ti thesi tous sti mnimi 
.................... #byte PORTE =0xF84 // Orismos ton thiron me ti thesi tous sti mnimi 
....................  
.................... // Dilosi global metavliton 
.................... int8 counter = 0x30; 
....................  
.................... // Dilosi sinartiseon 
.................... void ext_int0(void); 
.................... void init(void); 
....................  
.................... void main() 
*
0100:  CLRF   FF8
0102:  BCF    FD0.7
0104:  BSF    07.7
0106:  MOVLW  30
0108:  MOVWF  16
010A:  MOVF   FC1,W
010C:  ANDLW  C0
010E:  IORLW  0F
0110:  MOVWF  FC1
0112:  MOVLW  07
0114:  MOVWF  FB4
.................... { 
....................    init(); 
0116:  BRA    00E6
....................    while (TRUE) { 
0118:  BRA    0118
....................  
....................    } 
.................... }    
....................  
.................... // Ylopoiisi synartiseon 
.................... #INT_EXT // Diakopi me megali proteraiotita 
.................... void ext_int0(void) { 
011A:  SLEEP 
....................    counter--; 
*
00C4:  DECF   16,F
....................    if (counter == 0) 
00C6:  MOVF   16,F
00C8:  BNZ   00CE
....................       counter = 0x30; 
00CA:  MOVLW  30
00CC:  MOVWF  16
....................    PORTD = counter; 
00CE:  MOVFF  16,F83
....................    delay_ms(300); // Gia na apofygoume tis anapidiseis tou diakopti 
00D2:  MOVLW  02
00D4:  MOVWF  17
00D6:  MOVLW  96
00D8:  MOVWF  18
00DA:  BRA    0096
00DC:  DECFSZ 17,F
00DE:  BRA    00D6
00E0:  BCF    FF2.1
00E2:  GOTO   0054
.................... } 
....................  
.................... void init(void) { 
....................    set_tris_b(0xff); // Orismos tou PORTB san eisodo (1) 
00E6:  MOVLW  FF
00E8:  MOVWF  F93
....................    set_tris_d(0x00); // Orismos tou PORTD san eksodo (0) 
00EA:  MOVLW  00
00EC:  MOVWF  F95
....................    PORTD = counter; 
00EE:  MOVFF  16,F83
....................    port_b_pullups(TRUE); 
00F2:  BCF    FF1.7
....................    ext_int_edge(0, H_TO_L); 
00F4:  BCF    FF1.6
....................    enable_interrupts(INT_EXT); // Energopoiisi eksoterikis diakopis RB0 
00F6:  BSF    FF2.4
....................    enable_interrupts(GLOBAL); // Energopoiisi genikou diakopti diakopon 
00F8:  MOVLW  C0
00FA:  IORWF  FF2,F
00FC:  GOTO   0118 (RETURN)
.................... } 

Configuration Fuses:
   Word  1: 0E24   PLL5 CPUDIV1 USBDIV HSPLL NOFCMEN NOIESO
   Word  2: 1E3F   NOPUT BROWNOUT BORV21 VREGEN NOWDT WDT32768
   Word  3: 8000   CCP2B3 NOPBADEN NOLPT1OSC MCLR
   Word  4: 0081   STVREN NOLVP ICSP1 NOXINST NODEBUG
   Word  5: C00F   NOPROTECT NOCPB NOCPD
   Word  6: A00F   NOWRT NOWRTC WRTB NOWRTD
   Word  7: 400F   NOEBTR NOEBTRB
