CCS PCH C Compiler, Version 5.011, 5967               15-Απρ-25 00:41

               Filename:   F:\Common\Programming\GitHub\DIPAE_EnsomatomenaSystimata_6th_Term\Askisi5\Askisi5.1\askisi5_1.lst

               ROM used:   1042 bytes (3%)
                           Largest free fragment is 31722
               RAM used:   52 (3%) at main() level
                           65 (3%) worst case
               Stack used: 3 locations (1 in main + 2 for interrupts)
               Stack size: 31

*
0000:  GOTO   0366
*
0008:  MOVWF  04
000A:  MOVFF  FD8,05
000E:  MOVFF  FE0,06
0012:  MOVLB  0
0014:  MOVFF  FE9,0C
0018:  MOVFF  FEA,07
001C:  MOVFF  FE1,08
0020:  MOVFF  FE2,09
0024:  MOVFF  FD9,0A
0028:  MOVFF  FDA,0B
002C:  MOVFF  FF3,12
0030:  MOVFF  FF4,13
0034:  MOVFF  FFA,14
0038:  MOVFF  00,0E
003C:  MOVFF  01,0F
0040:  MOVFF  02,10
0044:  MOVFF  03,11
0048:  BTFSS  FF2.5
004A:  GOTO   0054
004E:  BTFSC  FF2.2
0050:  GOTO   0120
0054:  MOVFF  0E,00
0058:  MOVFF  0F,01
005C:  MOVFF  10,02
0060:  MOVFF  11,03
0064:  MOVFF  0C,FE9
0068:  MOVFF  07,FEA
006C:  BSF    07.7
006E:  MOVFF  08,FE1
0072:  MOVFF  09,FE2
0076:  MOVFF  0A,FD9
007A:  MOVFF  0B,FDA
007E:  MOVFF  12,FF3
0082:  MOVFF  13,FF4
0086:  MOVFF  14,FFA
008A:  MOVF   04,W
008C:  MOVFF  06,FE0
0090:  MOVFF  05,FD8
0094:  RETFIE 0
.................... // DIPAE - Enosmatomena Systimata - 6o Eksamino 
.................... // Alevropoulos Panagiotis 
.................... // AM: 2022005 
.................... // Askisi: 5.1 
.................... #include <main_.h> // Gia ektelesi se Proteus 
.................... #include <18F4550.h> 
.................... //////// Standard Header file for the PIC18F4550 device //////////////// 
.................... #device PIC18F4550 
0096:  CLRF   01
0098:  CLRF   02
009A:  CLRF   00
009C:  CLRF   03
009E:  MOVF   3F,W
00A0:  BNZ   00A6
00A2:  MOVF   3E,W
00A4:  BZ    00D6
00A6:  MOVLW  10
00A8:  MOVWF  40
00AA:  BCF    FD8.0
00AC:  RLCF   3C,F
00AE:  RLCF   3D,F
00B0:  RLCF   00,F
00B2:  RLCF   03,F
00B4:  MOVF   3F,W
00B6:  SUBWF  03,W
00B8:  BNZ   00BE
00BA:  MOVF   3E,W
00BC:  SUBWF  00,W
00BE:  BNC   00CE
00C0:  MOVF   3E,W
00C2:  SUBWF  00,F
00C4:  BTFSS  FD8.0
00C6:  DECF   03,F
00C8:  MOVF   3F,W
00CA:  SUBWF  03,F
00CC:  BSF    FD8.0
00CE:  RLCF   01,F
00D0:  RLCF   02,F
00D2:  DECFSZ 40,F
00D4:  BRA    00AA
00D6:  RETURN 0
00D8:  MOVF   3C,W
00DA:  MULWF  3E
00DC:  MOVFF  FF3,01
00E0:  MOVFF  FF4,00
00E4:  MULWF  3F
00E6:  MOVF   FF3,W
00E8:  ADDWF  00,F
00EA:  MOVF   3D,W
00EC:  MULWF  3E
00EE:  MOVF   FF3,W
00F0:  ADDWFC 00,W
00F2:  MOVWF  02
00F4:  RETURN 0
00F6:  MOVF   3B,W
00F8:  CLRF   01
00FA:  SUBWF  3A,W
00FC:  BC    0104
00FE:  MOVFF  3A,00
0102:  BRA    011C
0104:  CLRF   00
0106:  MOVLW  08
0108:  MOVWF  3C
010A:  RLCF   3A,F
010C:  RLCF   00,F
010E:  MOVF   3B,W
0110:  SUBWF  00,W
0112:  BTFSC  FD8.0
0114:  MOVWF  00
0116:  RLCF   01,F
0118:  DECFSZ 3C,F
011A:  BRA    010A
011C:  GOTO   02CE (RETURN)
....................  
.................... #list 
....................  
.................... #device adc=10 
....................  
.................... #FUSES NOWDT                     //No Watch Dog Timer 
.................... #FUSES WDT32768                    //Watch Dog Timer uses 1:128 Postscale 
.................... #FUSES HSPLL                     //High Speed Crystal/Resonator with PLL enabled 
.................... #FUSES NOPROTECT                 //Code not protected from reading 
.................... #FUSES BROWNOUT                //No brownout reset 
.................... //#FUSES BORV20                    //Brownout reset at 2.0V 
.................... #FUSES NOPUT                     //No Power Up Timer 
.................... #FUSES NOCPD                     //No EE protection 
.................... #FUSES STVREN                    //Stack full/underflow will cause reset 
.................... #FUSES NODEBUG                   //No Debug mode for ICD 
.................... #FUSES NOLVP                     //No low voltage prgming, B3(PIC16) or B5(PIC18) used for I/O 
.................... #FUSES NOWRT                     //Program memory not write protected 
.................... #FUSES NOWRTD                    //Data EEPROM not write protected 
.................... #FUSES NOIESO                      //Internal External Switch Over mode enabled 
.................... #FUSES NOFCMEN                     //Fail-safe clock monitor enabled 
.................... #FUSES NOPBADEN                 ///PORTB pins are configured as analog input channels on RESET 
.................... #FUSES NOWRTC                    //configuration not registers write protected 
.................... #FUSES NOWRTB                    //Boot block not write protected 
.................... #FUSES NOEBTR                    //Memory not protected from table reads 
.................... #FUSES NOEBTRB                   //Boot block not protected from table reads 
.................... #FUSES NOCPB                     //No Boot Block code protection 
.................... #FUSES MCLR                      //Master Clear pin enabled 
.................... #FUSES NOLPT1OSC                   //Timer1 configured for low-power operation 
.................... #FUSES NOXINST                   //Extended set extension and Indexed Addressing mode disabled (Legacy mode) 
.................... #FUSES PLL5                      //Divide By 12(48MHz oscillator input) 
.................... #FUSES CPUDIV1                   //System Clock by 2 
.................... #FUSES USBDIV                    //USB clock source comes from PLL divide by 2 
.................... #FUSES VREGEN                    //USB voltage regulator enabled 
.................... //#FUSES ICPRT                     //ICPRT enabled 
.................... #FUSES WRTB 
.................... #FUSES NOICPRT  
.................... #FUSES NOLPT1OSC 
.................... #FUSES CCP2B3  
.................... #FUSES NOCPB 
.................... #FUSES NOCPD 
.................... #FUSES NOWRTC 
.................... #FUSES NOWRTD 
.................... #FUSES NOEBTR 
.................... #FUSES NOEBTRB               
....................  
.................... /* systm clock is 48 MHz */ 
.................... #use delay(clock=48000000,RESTART_WDT) 
.................... /* --- BEGIN: changes required for bootloader ------------------------------ */ 
....................  
.................... /* ------------------------------------------------------------------------- */ 
.................... /* map reset vector and interrupt vector                                     */ 
.................... /* 0x000-0x7FF is used by the bootloader. The bootloader maps the original   */ 
.................... /* reset vecotr (0x000) to 0x800 and the reset vector (0x008) to 0x800.      */ 
.................... /* ------------------------------------------------------------------------- */ 
.................... //#build (reset=0x800, interrupt=0x808) 
....................  
.................... /* ------------------------------------------------------------------------- */ 
.................... /* reserve boot block area                                                   */ 
.................... /* This memory range is used by the bootloader, so the application must not  */ 
.................... /* use this area.                                                            */ 
.................... /* ------------------------------------------------------------------------- */ 
.................... //#org 0, 0x7FF {} 
....................  
.................... /* --- END: changes required for bootloader -------------------------------- */ 
....................  
....................  
....................  
....................  
....................  
.................... //#include <main.h> // Gia ektelesi se PIC 
....................  
.................... // Standard Eisodoi & Eksodoi 
.................... #use standard_io (A) 
.................... #use standard_io (B) 
.................... #use standard_io (C) 
....................  
.................... // Orismos ton thiron me ti thesi tous sti mnimi 
.................... #byte PORTA =0xF80 
.................... #byte PORTB =0xF81 
.................... #byte PORTC =0xF82 
.................... #byte PORTD =0xF83 
.................... #byte PORTE =0xF84 
....................  
.................... const int16 timer_start_value = 5536; // Orismos arxikis timis timer0; 
....................  
.................... int8 des = 0; 
.................... int16 seconds = 300; 
.................... int16 counter = 200; 
.................... int1 flag1 = 0; 
.................... int1 flag2 = 0; 
.................... int8 aux_counter = 5; 
.................... int8 var_counter = 5; 
.................... int16 temp_var = 0; 
....................  
.................... // Dilosi pinaka katastaseon Endeikti 7 tomeon koinis kathodou 
.................... int8 table[16] = {0x3f, // 0b00111111 -> 0 
....................                   0x06, // 0b00000110 -> 1 
....................                   0x5b, // 0b01011011 -> 2 
....................                   0x4f, // 0b01001111 -> 3 
....................                   0x66, // 0b01100110 -> 4 
....................                   0x6d, // 0b01101101 -> 5 
....................                   0x7d, // 0b01111101 -> 6 
....................                   0x07, // 0b00000111 -> 7 
....................                   0x7f, // 0b01111111 -> 8 
....................                   0x6f, // 0b01101111 -> 9 
....................                   0x77, // 0b01110111 -> A 
....................                   0x7c, // 0b01111100 -> b 
....................                   0x39, // 0b00111001 -> C 
....................                   0x5e, // 0b01011110 -> d 
....................                   0x79, // 0b01111001 -> E 
....................                   0x71}; // 0b01110001 -> F 
....................  
.................... // Dilosi pinaka tranzistor gia energopoiisis tou PORTC 
.................... int8 dig[3] = {1, 2, 4}; 
....................  
.................... // Dilosi sinartiseon eksipiretisis 
.................... void timer0_int(void); 
.................... void init(void); 
....................  
.................... void main() { 
*
0366:  CLRF   FF8
0368:  BCF    FD0.7
036A:  BSF    07.7
036C:  CLRF   16
036E:  MOVLW  01
0370:  MOVWF  18
0372:  MOVLW  2C
0374:  MOVWF  17
0376:  CLRF   1A
0378:  MOVLW  C8
037A:  MOVWF  19
037C:  BCF    1B.0
037E:  BCF    1B.1
0380:  MOVLW  05
0382:  MOVWF  1C
0384:  MOVWF  1D
0386:  CLRF   1F
0388:  CLRF   1E
038A:  MOVF   FC1,W
038C:  ANDLW  C0
038E:  IORLW  0F
0390:  MOVWF  FC1
0392:  MOVLW  07
0394:  MOVWF  FB4
0396:  MOVLW  3F
0398:  MOVWF  20
039A:  MOVLW  06
039C:  MOVWF  21
039E:  MOVLW  5B
03A0:  MOVWF  22
03A2:  MOVLW  4F
03A4:  MOVWF  23
03A6:  MOVLW  66
03A8:  MOVWF  24
03AA:  MOVLW  6D
03AC:  MOVWF  25
03AE:  MOVLW  7D
03B0:  MOVWF  26
03B2:  MOVLW  07
03B4:  MOVWF  27
03B6:  MOVLW  7F
03B8:  MOVWF  28
03BA:  MOVLW  6F
03BC:  MOVWF  29
03BE:  MOVLW  77
03C0:  MOVWF  2A
03C2:  MOVLW  7C
03C4:  MOVWF  2B
03C6:  MOVLW  39
03C8:  MOVWF  2C
03CA:  MOVLW  5E
03CC:  MOVWF  2D
03CE:  MOVLW  79
03D0:  MOVWF  2E
03D2:  MOVLW  71
03D4:  MOVWF  2F
03D6:  MOVLW  01
03D8:  MOVWF  30
03DA:  MOVLW  02
03DC:  MOVWF  31
03DE:  MOVLW  04
03E0:  MOVWF  32
....................    init(); 
03E2:  BRA    0328
....................    while (TRUE) { 
....................       if (bit_test(PORTD,1) == 1){ 
03E4:  BTFSS  F83.1
03E6:  BRA    03EC
....................          flag1 = 1;  
03E8:  BSF    1B.0
....................       } 
03EA:  BRA    03EE
....................       else { 
....................          flag1 = 0; 
03EC:  BCF    1B.0
....................       } 
....................       if (bit_test(PORTD,3) == 0) { 
03EE:  BTFSC  F83.3
03F0:  BRA    03FA
....................          seconds = 300;  
03F2:  MOVLW  01
03F4:  MOVWF  18
03F6:  MOVLW  2C
03F8:  MOVWF  17
....................       } 
....................       if ((bit_test(PORTD,0) == 0) && (temp_var == 0)) { 
03FA:  BTFSC  F83.0
03FC:  BRA    0412
03FE:  MOVF   1E,F
0400:  BNZ   0412
0402:  MOVF   1F,F
0404:  BNZ   0412
....................          temp_var = seconds; 
0406:  MOVFF  18,1F
040A:  MOVFF  17,1E
....................          output_high(PIN_D4); // Endeiksi sto LED sto PIN_D4 oti apothikeftike i timi tou xronometrou  
040E:  BCF    F95.4
0410:  BSF    F8C.4
....................       } 
0412:  BRA    03E4
....................    } 
.................... }    
....................  
.................... #INT_TIMER0 
.................... void timer0_int(void) { 
0414:  SLEEP 
....................    int16 mon, dec, eka; 
....................    counter--; // Kathe 200 * 5msec = 1sec 
*
0120:  MOVF   19,W
0122:  BTFSC  FD8.2
0124:  DECF   1A,F
0126:  DECF   19,F
....................    if ((counter == 0)) { 
0128:  MOVF   19,F
012A:  BNZ   0186
012C:  MOVF   1A,F
012E:  BNZ   0186
....................       counter = 200;//200 
0130:  CLRF   1A
0132:  MOVLW  C8
0134:  MOVWF  19
....................       if ((flag1 == 0) && (flag2 == 0)) { 
0136:  BTFSC  1B.0
0138:  BRA    0146
013A:  BTFSC  1B.1
013C:  BRA    0146
....................          seconds--; // Meionei kathe 1 sec 
013E:  MOVF   17,W
0140:  BTFSC  FD8.2
0142:  DECF   18,F
0144:  DECF   17,F
....................       }             
....................       if ((seconds == 280) && (aux_counter > 0)){ 
0146:  MOVF   17,W
0148:  SUBLW  18
014A:  BNZ   0160
014C:  DECFSZ 18,W
014E:  BRA    0160
0150:  MOVF   1C,F
0152:  BZ    0160
....................          seconds = 280; 
0154:  MOVLW  01
0156:  MOVWF  18
0158:  MOVLW  18
015A:  MOVWF  17
....................          aux_counter--; 
015C:  DECF   1C,F
....................          flag2 = 1; 
015E:  BSF    1B.1
....................       }   
....................       if (aux_counter == 0) { 
0160:  MOVF   1C,F
0162:  BNZ   016E
....................          var_counter--; 
0164:  DECF   1D,F
....................          seconds = temp_var; 
0166:  MOVFF  1F,18
016A:  MOVFF  1E,17
....................       } 
....................       if (var_counter == 0) {  
016E:  MOVF   1D,F
0170:  BNZ   0186
....................          aux_counter = 5; 
0172:  MOVLW  05
0174:  MOVWF  1C
....................          var_counter = 5; 
0176:  MOVWF  1D
....................          flag2 = 0; 
0178:  BCF    1B.1
....................          seconds = 300; 
017A:  MOVLW  01
017C:  MOVWF  18
017E:  MOVLW  2C
0180:  MOVWF  17
....................          output_low(PIN_D4); // Midenismos endeiksis LED sto PIN_D4 (Endeiksi oti apothikeftike i timi tou xronometrou) 
0182:  BCF    F95.4
0184:  BCF    F8C.4
....................           
....................       }                   
....................                                                      
....................    }                    
....................    if ((temp_var != 0) && (seconds == 300)) { 
0186:  MOVF   1E,F
0188:  BNZ   018E
018A:  MOVF   1F,F
018C:  BZ    022C
018E:  MOVF   17,W
0190:  SUBLW  2C
0192:  BNZ   022C
0194:  DECFSZ 18,W
0196:  BRA    022C
....................       eka = (int8) (temp_var / 100); 
0198:  MOVFF  1F,3D
019C:  MOVFF  1E,3C
01A0:  CLRF   3F
01A2:  MOVLW  64
01A4:  MOVWF  3E
01A6:  RCALL  0096
01A8:  MOVFF  02,39
01AC:  MOVFF  01,38
....................       dec = (int8) ((temp_var - (100 * eka)) / 10); 
01B0:  CLRF   3D
01B2:  MOVLW  64
01B4:  MOVWF  3C
01B6:  MOVFF  39,3F
01BA:  MOVFF  38,3E
01BE:  RCALL  00D8
01C0:  MOVFF  02,03
01C4:  MOVF   01,W
01C6:  SUBWF  1E,W
01C8:  MOVWF  3A
01CA:  MOVF   02,W
01CC:  SUBWFB 1F,W
01CE:  MOVWF  3B
01D0:  MOVWF  3D
01D2:  MOVFF  3A,3C
01D6:  CLRF   3F
01D8:  MOVLW  0A
01DA:  MOVWF  3E
01DC:  RCALL  0096
01DE:  MOVFF  02,37
01E2:  MOVFF  01,36
....................       mon = (int8) (temp_var - (100 * eka) - (10 * dec)); 
01E6:  CLRF   3D
01E8:  MOVLW  64
01EA:  MOVWF  3C
01EC:  MOVFF  39,3F
01F0:  MOVFF  38,3E
01F4:  RCALL  00D8
01F6:  MOVFF  02,03
01FA:  MOVF   01,W
01FC:  SUBWF  1E,W
01FE:  MOVWF  3A
0200:  MOVF   02,W
0202:  SUBWFB 1F,W
0204:  MOVWF  3B
0206:  CLRF   3D
0208:  MOVLW  0A
020A:  MOVWF  3C
020C:  MOVFF  37,3F
0210:  MOVFF  36,3E
0214:  RCALL  00D8
0216:  MOVF   01,W
0218:  SUBWF  3A,W
021A:  MOVWF  00
021C:  MOVF   02,W
021E:  SUBWFB 3B,W
0220:  MOVF   00,W
0222:  CLRF   35
0224:  MOVWF  34
....................       temp_var = 0; 
0226:  CLRF   1F
0228:  CLRF   1E
....................    } 
022A:  BRA    02BA
....................    else { 
....................       eka = (int8) (seconds / 100); 
022C:  MOVFF  18,3D
0230:  MOVFF  17,3C
0234:  CLRF   3F
0236:  MOVLW  64
0238:  MOVWF  3E
023A:  RCALL  0096
023C:  MOVFF  02,39
0240:  MOVFF  01,38
....................       dec = (int8) ((seconds - (100 * eka)) / 10); 
0244:  CLRF   3D
0246:  MOVLW  64
0248:  MOVWF  3C
024A:  MOVFF  39,3F
024E:  MOVFF  38,3E
0252:  RCALL  00D8
0254:  MOVFF  02,03
0258:  MOVF   01,W
025A:  SUBWF  17,W
025C:  MOVWF  3A
025E:  MOVF   02,W
0260:  SUBWFB 18,W
0262:  MOVWF  3B
0264:  MOVWF  3D
0266:  MOVFF  3A,3C
026A:  CLRF   3F
026C:  MOVLW  0A
026E:  MOVWF  3E
0270:  RCALL  0096
0272:  MOVFF  02,37
0276:  MOVFF  01,36
....................       mon = (int8) (seconds - (100 * eka) - (10 * dec));       
027A:  CLRF   3D
027C:  MOVLW  64
027E:  MOVWF  3C
0280:  MOVFF  39,3F
0284:  MOVFF  38,3E
0288:  RCALL  00D8
028A:  MOVFF  02,03
028E:  MOVF   01,W
0290:  SUBWF  17,W
0292:  MOVWF  3A
0294:  MOVF   02,W
0296:  SUBWFB 18,W
0298:  MOVWF  3B
029A:  CLRF   3D
029C:  MOVLW  0A
029E:  MOVWF  3C
02A0:  MOVFF  37,3F
02A4:  MOVFF  36,3E
02A8:  RCALL  00D8
02AA:  MOVF   01,W
02AC:  SUBWF  3A,W
02AE:  MOVWF  00
02B0:  MOVF   02,W
02B2:  SUBWFB 3B,W
02B4:  MOVF   00,W
02B6:  CLRF   35
02B8:  MOVWF  34
....................    } 
....................    set_timer0(timer_start_value); // Arxiki timi tou metriti 
02BA:  MOVLW  15
02BC:  MOVWF  FD7
02BE:  MOVLW  A0
02C0:  MOVWF  FD6
....................    des = ++des%3; 
02C2:  INCF   16,F
02C4:  MOVFF  16,3A
02C8:  MOVLW  03
02CA:  MOVWF  3B
02CC:  BRA    00F6
02CE:  MOVFF  00,16
....................    PORTC = dig[des]; 
02D2:  CLRF   03
02D4:  MOVF   16,W
02D6:  ADDLW  30
02D8:  MOVWF  FE9
02DA:  MOVLW  00
02DC:  ADDWFC 03,W
02DE:  MOVWF  FEA
02E0:  MOVFF  FEF,F82
....................    if (des==0) { 
02E4:  MOVF   16,F
02E6:  BNZ   02F8
....................       PORTB = table[mon]; 
02E8:  MOVLW  20
02EA:  ADDWF  34,W
02EC:  MOVWF  FE9
02EE:  MOVLW  00
02F0:  ADDWFC 35,W
02F2:  MOVWF  FEA
02F4:  MOVFF  FEF,F81
....................    }    
....................    if (des==1){ 
02F8:  DECFSZ 16,W
02FA:  BRA    030C
....................       PORTB = table[dec]; 
02FC:  MOVLW  20
02FE:  ADDWF  36,W
0300:  MOVWF  FE9
0302:  MOVLW  00
0304:  ADDWFC 37,W
0306:  MOVWF  FEA
0308:  MOVFF  FEF,F81
....................    }             
....................    if (des==2) { 
030C:  MOVF   16,W
030E:  SUBLW  02
0310:  BNZ   0322
....................       PORTB = table[eka]; 
0312:  MOVLW  20
0314:  ADDWF  38,W
0316:  MOVWF  FE9
0318:  MOVLW  00
031A:  ADDWFC 39,W
031C:  MOVWF  FEA
031E:  MOVFF  FEF,F81
....................    } 
0322:  BCF    FF2.2
0324:  GOTO   0054
.................... } 
....................  
.................... void init(void) { 
....................    set_tris_b(0x00); // Orismos tou PORTB san eksodo (0) 
0328:  MOVLW  00
032A:  MOVWF  F93
....................    set_tris_c(0x00); // Orismos tou PORTBC PIN2 san eksodo (1) gia ti geiosi tou Endeikti 
032C:  MOVWF  F94
....................    set_tris_d(0x0f); // Orismos tou LSB tou PORTD san eisodo (1) kai tou MSB san eksodo  
032E:  MOVLW  0F
0330:  MOVWF  F95
....................    PORTB = 0; 
0332:  CLRF   F81
....................    PORTC = 0; 
0334:  CLRF   F82
....................    output_low(PIN_D4); // Midenismos endeiksis LED sto PIN_D4 (Endeiksi oti apothikeftike i timi tou xronometrou)  
0336:  BCF    F95.4
0338:  BCF    F8C.4
....................    counter = 200; // Arxikopoiisi tou counter 
033A:  CLRF   1A
033C:  MOVLW  C8
033E:  MOVWF  19
....................    seconds = 300; // Arxikopoiisi tou metriti xronou 
0340:  MOVLW  01
0342:  MOVWF  18
0344:  MOVLW  2C
0346:  MOVWF  17
....................    aux_counter = 5; 
0348:  MOVLW  05
034A:  MOVWF  1C
....................    var_counter = 5; 
034C:  MOVWF  1D
....................    des = 0; // Arxikopoiisi tis epilogis psifiou 
034E:  CLRF   16
....................    SETUP_TIMER_0(T0_INTERNAL | T0_DIV_1); 
0350:  MOVLW  88
0352:  MOVWF  FD5
....................    set_timer0(timer_start_value); 
0354:  MOVLW  15
0356:  MOVWF  FD7
0358:  MOVLW  A0
035A:  MOVWF  FD6
....................    enable_interrupts(INT_TIMER0); 
035C:  BSF    FF2.5
....................    enable_interrupts(GLOBAL); // Energopoiisi genikou diakopti diakopon 
035E:  MOVLW  C0
0360:  IORWF  FF2,F
0362:  GOTO   03E4 (RETURN)
.................... } 
....................  

Configuration Fuses:
   Word  1: 0E24   PLL5 CPUDIV1 USBDIV HSPLL NOFCMEN NOIESO
   Word  2: 1E3F   NOPUT BROWNOUT BORV21 VREGEN NOWDT WDT32768
   Word  3: 8000   CCP2B3 NOPBADEN NOLPT1OSC MCLR
   Word  4: 0081   STVREN NOLVP ICSP1 NOXINST NODEBUG
   Word  5: C00F   NOPROTECT NOCPB NOCPD
   Word  6: A00F   NOWRT NOWRTC WRTB NOWRTD
   Word  7: 400F   NOEBTR NOEBTRB
