CCS PCH C Compiler, Version 5.011, 5967               25-Ìáú-25 18:00

               Filename:   F:\Common\Programming\GitHub\DIPAE_EnsomatomenaSystimata_6th_Term\AskisisTheorias\Timers\Askisi6a\Askisi6a.lst

               ROM used:   222 bytes (1%)
                           Largest free fragment is 32542
               RAM used:   23 (1%) at main() level
                           23 (1%) worst case
               Stack used: 2 locations (1 in main + 1 for interrupts)
               Stack size: 31

*
0000:  GOTO   00CA
*
0008:  MOVWF  04
000A:  MOVFF  FD8,05
000E:  MOVFF  FE0,06
0012:  MOVLB  0
0014:  MOVFF  FE9,0C
0018:  MOVFF  FEA,07
001C:  MOVFF  FE1,08
0020:  MOVFF  FE2,09
0024:  MOVFF  FD9,0A
0028:  MOVFF  FDA,0B
002C:  MOVFF  FF3,12
0030:  MOVFF  FF4,13
0034:  MOVFF  FFA,14
0038:  MOVFF  00,0E
003C:  MOVFF  01,0F
0040:  MOVFF  02,10
0044:  MOVFF  03,11
0048:  BTFSS  FF2.5
004A:  GOTO   0054
004E:  BTFSC  FF2.2
0050:  GOTO   0096
0054:  MOVFF  0E,00
0058:  MOVFF  0F,01
005C:  MOVFF  10,02
0060:  MOVFF  11,03
0064:  MOVFF  0C,FE9
0068:  MOVFF  07,FEA
006C:  BSF    07.7
006E:  MOVFF  08,FE1
0072:  MOVFF  09,FE2
0076:  MOVFF  0A,FD9
007A:  MOVFF  0B,FDA
007E:  MOVFF  12,FF3
0082:  MOVFF  13,FF4
0086:  MOVFF  14,FFA
008A:  MOVF   04,W
008C:  MOVFF  06,FE0
0090:  MOVFF  05,FD8
0094:  RETFIE 0
.................... // Askisi 6a theorias gia timer0 
.................... // Anavoun ta led sto PORTB kathe 200ms (20 * 10ms) 
.................... #include <main_.h> 
.................... #include <18F4550.h> 
.................... //////// Standard Header file for the PIC18F4550 device //////////////// 
.................... #device PIC18F4550 
....................  
.................... #list 
....................  
.................... #device adc=10 
....................  
.................... #FUSES NOWDT                     //No Watch Dog Timer 
.................... #FUSES WDT32768                    //Watch Dog Timer uses 1:128 Postscale 
.................... #FUSES HSPLL                     //High Speed Crystal/Resonator with PLL enabled 
.................... #FUSES NOPROTECT                 //Code not protected from reading 
.................... #FUSES BROWNOUT                //No brownout reset 
.................... //#FUSES BORV20                    //Brownout reset at 2.0V 
.................... #FUSES NOPUT                     //No Power Up Timer 
.................... #FUSES NOCPD                     //No EE protection 
.................... #FUSES STVREN                    //Stack full/underflow will cause reset 
.................... #FUSES NODEBUG                   //No Debug mode for ICD 
.................... #FUSES NOLVP                     //No low voltage prgming, B3(PIC16) or B5(PIC18) used for I/O 
.................... #FUSES NOWRT                     //Program memory not write protected 
.................... #FUSES NOWRTD                    //Data EEPROM not write protected 
.................... #FUSES NOIESO                      //Internal External Switch Over mode enabled 
.................... #FUSES NOFCMEN                     //Fail-safe clock monitor enabled 
.................... #FUSES NOPBADEN                 ///PORTB pins are configured as analog input channels on RESET 
.................... #FUSES NOWRTC                    //configuration not registers write protected 
.................... #FUSES NOWRTB                    //Boot block not write protected 
.................... #FUSES NOEBTR                    //Memory not protected from table reads 
.................... #FUSES NOEBTRB                   //Boot block not protected from table reads 
.................... #FUSES NOCPB                     //No Boot Block code protection 
.................... #FUSES MCLR                      //Master Clear pin enabled 
.................... #FUSES NOLPT1OSC                   //Timer1 configured for low-power operation 
.................... #FUSES NOXINST                   //Extended set extension and Indexed Addressing mode disabled (Legacy mode) 
.................... #FUSES PLL5                      //Divide By 12(48MHz oscillator input) 
.................... #FUSES CPUDIV1                   //System Clock by 2 
.................... #FUSES USBDIV                    //USB clock source comes from PLL divide by 2 
.................... #FUSES VREGEN                    //USB voltage regulator enabled 
.................... //#FUSES ICPRT                     //ICPRT enabled 
.................... #FUSES WRTB 
.................... #FUSES NOICPRT  
.................... #FUSES NOLPT1OSC 
.................... #FUSES CCP2B3  
.................... #FUSES NOCPB 
.................... #FUSES NOCPD 
.................... #FUSES NOWRTC 
.................... #FUSES NOWRTD 
.................... #FUSES NOEBTR 
.................... #FUSES NOEBTRB               
....................  
.................... /* systm clock is 48 MHz */ 
.................... #use delay(clock=48000000,RESTART_WDT) 
.................... /* --- BEGIN: changes required for bootloader ------------------------------ */ 
....................  
.................... /* ------------------------------------------------------------------------- */ 
.................... /* map reset vector and interrupt vector                                     */ 
.................... /* 0x000-0x7FF is used by the bootloader. The bootloader maps the original   */ 
.................... /* reset vecotr (0x000) to 0x800 and the reset vector (0x008) to 0x800.      */ 
.................... /* ------------------------------------------------------------------------- */ 
.................... //#build (reset=0x800, interrupt=0x808) 
....................  
.................... /* ------------------------------------------------------------------------- */ 
.................... /* reserve boot block area                                                   */ 
.................... /* This memory range is used by the bootloader, so the application must not  */ 
.................... /* use this area.                                                            */ 
.................... /* ------------------------------------------------------------------------- */ 
.................... //#org 0, 0x7FF {} 
....................  
.................... /* --- END: changes required for bootloader -------------------------------- */ 
....................  
....................  
....................  
....................  
....................  
.................... #use standard_io ( A ) 
.................... #use standard_io ( B ) 
.................... #use standard_io ( C ) 
.................... #byte PORTA =0xF80 
.................... #byte PORTB =0xF81 
.................... #byte PORTC =0xF82 
.................... #byte PORTD =0xF83 
.................... #byte PORTE =0xF84 
....................  
.................... // Ypologizoume me logo 1/64 tin periodo stin eisodo tou timer0 
.................... // 10ms = 10000ìó 
.................... // 64 * 83.33ns = 5333.12ns = 5.3312ìs 
.................... // (65536 - y) * 5.3312ìs = 10000 => 65536 - y = 10000 / 5.3312 => 
.................... // 65536 - y = 1875 => y = 63661 
.................... #define TIMER_INITIAL_VALUE 63661 
.................... // INTERRUPTS HANDLING 
.................... void init(void); 
.................... void timer0_int(void); 
.................... int8 counter1; // Epeidi 200 = counter1 * 10 
....................  
.................... void main() 
*
00CA:  CLRF   FF8
00CC:  BCF    FD0.7
00CE:  BSF    07.7
00D0:  MOVF   FC1,W
00D2:  ANDLW  C0
00D4:  IORLW  0F
00D6:  MOVWF  FC1
00D8:  MOVLW  07
00DA:  MOVWF  FB4
.................... { 
....................    init(); 
00DC:  BRA    00AA
....................    while(TRUE) { 
00DE:  BRA    00DE
....................    } 
.................... } 
....................  
00E0:  SLEEP 
.................... void init(void) { 
....................    set_tris_b(0x00); // Ïñßæïõìå ôç èýñá B óáí ÅÎÏÄÏ (0) 
*
00AA:  MOVLW  00
00AC:  MOVWF  F93
....................    PORTB = 0x00;    
00AE:  CLRF   F81
....................    counter1 = 20; 
00B0:  MOVLW  14
00B2:  MOVWF  16
....................    // Arxikopoiisi interrupts 
....................    SETUP_TIMER_0(T0_INTERNAL | T0_DIV_64); 
00B4:  MOVLW  85
00B6:  MOVWF  FD5
....................    enable_interrupts(GLOBAL); 
00B8:  MOVLW  C0
00BA:  IORWF  FF2,F
....................    enable_interrupts(INT_TIMER0); 
00BC:  BSF    FF2.5
....................    set_timer0(TIMER_INITIAL_VALUE); 
00BE:  MOVLW  F8
00C0:  MOVWF  FD7
00C2:  MOVLW  AD
00C4:  MOVWF  FD6
00C6:  GOTO   00DE (RETURN)
.................... } 
....................  
.................... // INTERRUPTS HANDLING 
.................... #INT_TIMER0 
.................... void timer0_int() { 
....................    counter1--; 
*
0096:  DECF   16,F
....................    if (counter1 ==0) { 
0098:  MOVF   16,F
009A:  BNZ   00A4
....................       counter1 = 20; 
009C:  MOVLW  14
009E:  MOVWF  16
....................       PORTB = PORTB + 1; 
00A0:  MOVLW  01
00A2:  ADDWF  F81,F
....................    } 
00A4:  BCF    FF2.2
00A6:  GOTO   0054
.................... } 
....................  

Configuration Fuses:
   Word  1: 0E24   PLL5 CPUDIV1 USBDIV HSPLL NOFCMEN NOIESO
   Word  2: 1E3F   NOPUT BROWNOUT BORV21 VREGEN NOWDT WDT32768
   Word  3: 8000   CCP2B3 NOPBADEN NOLPT1OSC MCLR
   Word  4: 0081   STVREN NOLVP ICSP1 NOXINST NODEBUG
   Word  5: C00F   NOPROTECT NOCPB NOCPD
   Word  6: A00F   NOWRT NOWRTC WRTB NOWRTD
   Word  7: 400F   NOEBTR NOEBTRB
